(lp0
(I0
I01
tp1
a(F2492.561613744003
I00
tp2
a(F8901.99669730339
I01
tp3
a(F10965.386149469427
I00
tp4
a(F11559.670176189282
I01
tp5
a(F13181.884279805263
I00
tp6
a(F13778.266533176426
I01
tp7
a(F13915.694852744917
I00
tp8
a(F14515.787110355217
I01
tp9
a(F15512.33041092115
I00
tp10
a(F15566.323045995536
I01
tp11
a(F21288.41307832676
I00
tp12
a(F21423.356943496758
I01
tp13
a(F21859.794835670444
I00
tp14
a(F21916.414517955847
I01
tp15
a(F22879.93155962071
I00
tp16
a(F23610.34032787591
I01
tp17
a(F26239.024034743525
I00
tp18
a(F28602.982947523495
I01
tp19
a(F34767.33020059806
I00
tp20
a(F36342.6059875664
I01
tp21
a.