(lp0
(I0
I01
tp1
a(F6711.675605005561
I00
tp2
a(F7148.216417269877
I01
tp3
a(F7785.94232107904
I00
tp4
a(F8254.66390520489
I01
tp5
a(F8658.179414943848
I00
tp6
a(F9695.39867795599
I01
tp7
a(F21952.137520513323
I00
tp8
a(F22837.845262328286
I01
tp9
a.