(lp0
(I0
I01
tp1
a(F1606.8005347259775
I00
tp2
a(F1900.9312262837352
I01
tp3
a(F3241.082664155577
I00
tp4
a(F3663.603532249786
I01
tp5
a(F6180.202542137243
I00
tp6
a(F6205.5880105712395
I01
tp7
a(F9363.184537196583
I00
tp8
a(F9407.166661567047
I01
tp9
a(F9449.433782169477
I00
tp10
a(F9535.489229795961
I01
tp11
a(F18464.24077540356
I00
tp12
a(F18630.907193176005
I01
tp13
a(F24484.82766070022
I00
tp14
a(F25279.767444303925
I01
tp15
a(F28019.840720386484
I00
tp16
a(F28615.66352291886
I01
tp17
a.