(lp0
(I0
I01
tp1
a(I3300
I00
tp2
a(I3600
I01
tp3
a(I6900
I00
tp4
a(I7200
I01
tp5
a(I10500
I00
tp6
a(I10800
I01
tp7
a(I14100
I00
tp8
a(I14400
I01
tp9
a(I17700
I00
tp10
a(I18000
I01
tp11
a(I21300
I00
tp12
a(I21600
I01
tp13
a(I24900
I00
tp14
a(I25200
I01
tp15
a(I28500
I00
tp16
a(I28800
I01
tp17
a(I32100
I00
tp18
a(I32400
I01
tp19
a(I35700
I00
tp20
a(I36000
I01
tp21
a.