(lp0
F0.5671541283778953
aF5.567088085138183
aF7.271835362012577
aF11.063710391658283
aF39.325605584519224
aF39.388848114410806
aF41.6729915426921
aF49.583191461398485
aF68.93073528323285
aF71.7699093643082
aF73.97711641537988
aF80.24460649841043
aF87.29175748049231
aF106.18447867960928
aF107.8222096503556
aF110.74523180330213
aF111.79073840876237
aF121.34034995409769
aF129.04900013900436
aF139.77560896017823
aF144.4459186214214
aF147.14053845951176
aF150.93408525920353
aF151.810199042312
aF156.92197313021828
aF160.8210003409633
aF166.78179100686597
aF169.84738304465642
aF176.11486314413375
aF185.64950052230125
aF192.04399451240894
aF196.74627088108784
aF198.05017916116893
aF200.45581746200924
aF207.69910459670058
aF211.6597124504872
aF213.21939730187435
aF214.1508783211073
aF236.51764251935816
aF239.52796805245572
aF243.39859269993804
aF256.66306992143126
aF260.0185273161724
aF264.80059318027986
aF266.55958501576794
aF270.6674345235624
aF270.67685224149744
aF271.0607232906261
aF277.7145541350221
aF278.13873959349814
aF290.2640935002178
aF292.291981629028
aF300.3219327420986
aF301.0043809246486
aF301.57632900519815
aF303.87395027524155
aF305.74485732574664
aF332.79753367190574
aF334.88680697931085
aF335.59071623581895
aF342.6213509523473
aF348.05491905358116
aF350.67035554426707
aF366.0892651006217
aF372.06112896170794
aF372.3531399850071
aF375.2304119315573
aF376.76696293907276
aF405.66260397469273
aF406.222828257614
aF407.85576170615053
aF424.7739297637155
aF441.0559179045053
aF441.6529439332226
aF441.71751250465417
aF442.0131844047605
aF446.5800843269178
aF447.514161820821
aF456.75302772283436
aF458.1486238802934
aF464.66739452692457
aF469.4398006071234
aF470.902008490229
aF480.55667147923054
aF482.86188471411555
aF485.51425201645054
aF486.9486278220828
aF495.85110754390126
aF497.8531322097264
aF498.2003449424576
aF503.11029090731057
aF505.7665249054122
aF506.0550320496975
aF510.92624181099734
aF515.1108132438079
aF522.8827245468112
aF530.6698546404136
aF531.3158478164031
aF544.3189642708618
aF548.0527744950609
aF550.3838629587257
aF563.3616822154382
aF578.2550344632174
aF580.9750387580934
aF582.2140022070256
aF588.2390316991994
aF589.1189880869576
aF604.1154019221802
aF606.8080296401457
aF613.8461883226561
aF619.1925622823285
aF619.3152632768672
aF621.5754621337119
aF626.4767284366338
aF631.2646873492647
aF648.2160368029238
aF654.2196541247203
aF656.4111518147214
aF657.9948254132902
aF660.3815243408814
aF663.0708053989667
aF663.1102900352196
aF666.9541186304385
aF686.9384814096409
aF689.6607995026802
aF696.1534405447827
aF699.8561473290139
aF706.9753112005945
aF714.4093336706442
aF714.9903113644652
aF723.6473955332588
aF725.8131723194049
aF727.1601750205242
aF729.1346084480958
aF733.8397438469483
aF735.9406172628264
aF743.4109126705621
aF745.000752338968
aF755.9745508032502
aF759.893133015756
aF760.7330763169828
aF761.8427790615776
aF764.7411116227717
aF765.85653983377
aF767.6383139253419
aF793.7557845495204
aF814.0226141745503
aF817.7245042020592
aF826.2702692568541
aF838.7261275590321
aF839.7644023074212
aF841.7783086179827
aF841.840724416435
aF843.4577340699004
aF846.9147390390879
aF863.9680036434518
aF865.8853052729643
aF874.5989184072376
aF880.9786718050641
aF881.4224336910883
aF885.1991118617693
aF886.2496466649015
aF889.9165746550417
aF904.0001162067485
aF911.0286003344461
aF916.7562813204822
aF917.9107645528659
aF935.0124372568071
aF936.9749685253529
aF939.9633945088591
aF944.8702924056195
aF946.913964677507
aF963.5617564889244
aF964.0773059987374
aF973.9088584093565
aF976.8202371690276
aF979.2863750120196
aF981.6991483392792
aF989.2241787095551
aF993.5100127432115
aF997.0031244462475
aF1000.5615305833319
aF1001.0219814276657
aF1002.3040865307468
aF1004.3830369606761
aF1005.2930046871427
aF1008.9267118122285
aF1016.112896942284
aF1019.4911686956149
aF1019.5604755925884
aF1024.211248402202
aF1029.432939541332
aF1038.4701705688278
aF1043.0745789840469
aF1049.2367295014972
aF1051.9847710839024
aF1052.7722417588932
aF1053.930921335695
aF1055.8590666454393
aF1071.9781145322333
aF1074.1116009700359
aF1075.4250444015406
aF1082.1503077696573
aF1083.8450606271167
aF1092.9252724938044
aF1103.1855379916183
aF1106.6550268745375
aF1109.1987236490786
aF1111.241177906893
aF1111.4147808297166
aF1113.1415682527754
aF1120.5520463439484
aF1121.5056068522608
aF1125.2089834299156
aF1130.9957510487045
aF1134.8094068033238
aF1138.6915604416804
aF1159.6798966482766
aF1162.4776593027743
aF1162.7490530100163
aF1169.2606515033015
aF1174.2672335788766
aF1183.9537331573265
aF1186.7072694006679
aF1188.0662936273575
aF1188.6836450062117
aF1191.6960505851437
aF1193.4775450554323
aF1196.0514951693128
aF1197.620480468007
aF1198.1521234190577
aF1202.627784921872
aF1205.4690034588893
aF1215.1770360149915
aF1220.8066351286466
aF1225.2068030258706
aF1226.441351397149
aF1229.818155810751
aF1233.6560774405448
aF1234.7948907949733
aF1255.8119858305408
aF1268.07413776457
aF1277.1763846615966
aF1281.6441737018606
aF1287.0732368617535
aF1289.8981342513543
aF1291.5039810480832
aF1297.4037883939163
aF1301.6595785872823
aF1306.5014019072532
aF1307.5955347000486
aF1320.7686282301158
aF1321.2147890374872
aF1340.337030622889
aF1341.317915105868
aF1344.0919434631817
aF1347.5424606089562
aF1351.5959128573222
aF1355.0934692519857
aF1359.8909031688688
aF1363.30476428452
aF1384.8086702286362
aF1390.640998828488
aF1392.069549077077
aF1392.7114926501083
aF1393.6075799620285
aF1397.1141415191669
aF1397.860840121138
aF1398.7557443195167
aF1399.3489170813898
aF1399.8976606346123
aF1406.1623462818086
aF1412.1427893761063
aF1412.6020030817012
aF1415.4797134020048
aF1419.9858782058934
aF1421.362422803989
aF1429.2369527492028
aF1431.83835487677
aF1434.0574834675288
aF1438.1398012793065
aF1460.7326107656472
aF1461.5980630208833
aF1465.0170256990039
aF1469.32572250917
aF1472.6434454587372
aF1473.1246877752624
aF1481.407418207906
aF1485.1395872433307
aF1494.149640681098
aF1513.4155835493846
aF1516.4534087519742
aF1516.5617086888963
aF1516.7569085549828
aF1525.4000866258898
aF1538.9702979893793
aF1542.698412652868
aF1545.418757634432
aF1547.4446409139002
aF1551.2499389876452
aF1565.7998075030948
aF1573.012499229448
aF1575.4100690237203
aF1592.578143572501
aF1593.2096779278982
aF1596.5444551665237
aF1598.394033860133
aF1605.039466677875
aF1615.3558159823979
aF1617.9305505211669
aF1624.0487746752126
aF1627.878217046669
aF1630.690801716626
aF1635.725597580889
aF1637.613624766528
aF1639.6354633138678
aF1642.075389217686
aF1644.1678919405042
aF1648.0044497043023
aF1667.6986803260234
aF1667.9674184927019
aF1673.4903252717709
aF1675.0207234365255
aF1675.1036304190657
aF1680.516001052672
aF1681.0531006353117
aF1685.4295187207777
aF1686.963405084763
aF1687.9287217547255
aF1694.1436236170337
aF1698.9683172544262
aF1703.8683732956883
aF1704.6073712945526
aF1708.3396852992819
aF1708.9317920348942
aF1720.1073534469406
aF1735.7505962070447
aF1737.5750345043366
aF1741.8084611463112
aF1742.5888655909243
aF1744.9864151722468
aF1745.2503833907658
aF1749.7175147102457
aF1762.998297200039
aF1768.2863225431972
aF1780.5944849711361
aF1790.584914260709
aF1791.9680332619303
aF1793.4482693272469
aF1803.0385129572496
aF1815.9823986699053
aF1818.4534606289465
aF1819.6691927847678
aF1823.6174245507013
aF1825.502203669756
aF1826.1208784968635
aF1829.6694120995621
aF1839.2208245862685
aF1839.8294518475366
aF1842.9674415080162
aF1852.262312775263
aF1852.8008375768204
aF1879.0510006389513
aF1882.7568514317893
aF1883.84784835712
aF1896.9827636406474
aF1903.1562522157321
aF1920.3515204116666
aF1922.2685950350688
aF1930.4351420012383
aF1930.8190722234651
aF1939.4537018381805
aF1944.5211335681806
aF1951.5863293131472
aF1963.488077175598
aF1966.4166728024086
aF1976.0274694051582
aF1983.8959617528853
aF1996.8317114164836
aF2001.5119224617977
aF2001.9686064220866
aF2009.5668122179331
aF2032.8777493229222
aF2046.5497291012484
aF2050.968670565324
aF2055.58362787944
aF2059.084340350229
aF2078.816887574883
aF2081.719559210685
aF2086.541604292065
aF2098.3774155295773
aF2106.464981532612
aF2110.0469554273172
aF2110.156692581665
aF2110.5501848502977
aF2113.968093186922
aF2123.736527902547
aF2142.2208266148805
aF2148.0891120411634
aF2154.669355265731
aF2168.366642001166
aF2174.678216184853
aF2189.1004004362812
aF2190.536543596212
aF2195.602989929832
aF2198.480744796263
aF2212.7328724681042
aF2222.4805190649254
aF2225.928772955826
aF2227.353246914592
aF2240.8174402316213
aF2244.6860255800657
aF2253.350753733885
aF2265.6286552454467
aF2270.1966743425724
aF2270.214620507738
aF2282.5259296983113
aF2283.1787488665914
aF2288.28965390548
aF2303.207742982555
aF2315.070015051643
aF2317.9040918661326
aF2320.5511912123884
aF2325.8224710306104
aF2327.5444766764626
aF2330.0070653789166
aF2330.21299780199
aF2345.610951724515
aF2358.1430748849602
aF2358.1780123386006
aF2358.304379988234
aF2362.3746202234925
aF2373.071554965943
aF2376.1667335086413
aF2378.134817048714
aF2389.0311522679012
aF2392.363592346379
aF2398.2528180266495
aF2411.786373662144
aF2432.660236411084
aF2441.0480693839395
aF2443.6420102647844
aF2446.993454230685
aF2447.347009991845
aF2450.970795698855
aF2462.604505834717
aF2466.067817251867
aF2468.9065545861217
aF2476.7069846639706
aF2479.250164318416
aF2480.0850243630125
aF2487.3998186816316
aF2508.8407944422465
aF2513.176327981971
aF2525.5935157640847
aF2537.8105692691815
aF2538.845787336923
aF2548.331106961193
aF2556.472130939436
aF2562.5339613092256
aF2569.327736487937
aF2573.795115308057
aF2579.9760829524243
aF2582.737221622902
aF2588.3445464550596
aF2590.3811999074055
aF2591.901806897048
aF2593.616247120163
aF2595.7892326449814
aF2597.4877243427445
aF2599.002741444417
aF2600.0318082445024
aF2600.8622803999147
aF2602.2126777018116
aF2604.839597414616
aF2611.1091516338524
aF2623.3378205808817
aF2626.846353274319
aF2631.3090233840817
aF2633.569357927344
aF2637.4764082591632
aF2638.9246685175112
aF2642.1759210068612
aF2654.2093250159946
aF2656.1572400421674
aF2656.432401362315
aF2656.5125247153305
aF2658.274137248056
aF2658.5991236813184
aF2662.8605429298927
aF2669.318260520726
aF2670.2508238648606
aF2672.5202785230204
aF2679.789633510696
aF2679.976140411705
aF2680.140972046989
aF2687.2104284944744
aF2691.0099369208465
aF2693.6987858179805
aF2701.721460384633
aF2706.3490498038936
aF2732.083290916488
aF2751.4505153717437
aF2752.7870349942227
aF2755.2750293455993
aF2755.291361434417
aF2757.199714037326
aF2757.4429671679222
aF2757.5962131844317
aF2766.315433564838
aF2771.7414592842874
aF2779.039762669755
aF2779.37614190863
aF2783.3231179570616
aF2785.3223014062
aF2789.3271602522045
aF2790.3796939279405
aF2797.8061288731774
aF2815.5912883150845
aF2820.9142417825096
aF2821.7080916893283
aF2837.987650147295
aF2844.727233802137
aF2850.8987058203843
aF2868.775044149619
aF2876.1087592482036
aF2879.762587647131
aF2879.8167049099975
aF2883.151918991368
aF2883.925822708491
aF2885.099115856223
aF2887.5347251883236
aF2893.08466664137
aF2895.6236758083405
aF2902.6281195353104
aF2909.636167116409
aF2926.3576879935317
aF2927.879308038566
aF2940.918700783473
aF2944.494137601609
aF2964.0447964354885
aF2967.8597972797274
aF2969.324546376869
aF2969.6375692212437
aF2973.537586134463
aF2978.473995195503
aF2978.805416316126
aF2980.3063290422956
aF2988.1138687630014
aF2990.300384699579
aF2991.802421624321
aF2996.915524379968
aF2997.7741632040397
aF3002.7519761088956
aF3006.8933344935863
aF3043.2183841015635
aF3043.7859505116394
aF3045.275664401753
aF3057.8360011923332
aF3058.7612485514724
aF3062.659524141738
aF3066.7693066052566
aF3067.1452037381105
aF3068.61737992208
aF3080.6602302382835
aF3083.4045949098554
aF3086.200042859958
aF3091.703682249977
aF3093.992506102368
aF3101.296270128462
aF3105.5919467715858
aF3117.450097071924
aF3125.8368256549215
aF3128.8195269795483
aF3129.6348877601768
aF3133.4635079017717
aF3139.2221343215433
aF3142.800853430786
aF3147.5485884554187
aF3148.2654806303094
aF3154.71664168776
aF3161.548494022424
aF3166.5955193266677
aF3181.5749644682487
aF3188.216393902421
aF3189.475100853537
aF3191.978942008333
aF3198.9649259492194
aF3201.5434340147035
aF3203.885314560263
aF3208.5187046251017
aF3210.7318644476654
aF3210.8890424225215
aF3212.6750697810735
aF3218.5047388405105
aF3226.94245187924
aF3228.9877654551274
aF3233.987214670762
aF3235.837315418447
aF3242.076443085613
aF3242.6183400971104
aF3244.6777626235835
aF3245.6228045134267
aF3247.028478845108
aF3259.798452721248
aF3260.620355334019
aF3263.841822682249
aF3264.103694925667
aF3264.3482312497094
aF3268.348149832444
aF3274.3673922941625
aF3275.301774127888
aF3278.2778434644156
aF3281.9386177653973
aF3283.482544389453
aF3301.4620826506343
aF3322.4355273639417
aF3327.7574646596663
aF3339.965640269648
aF3340.1827960385885
aF3343.3407034442926
aF3344.7263125111513
aF3345.824544211308
aF3357.3845135681204
aF3359.0826435205795
aF3363.5245471758194
aF3369.324315293286
aF3375.144108487994
aF3376.960555295556
aF3386.1006751330347
aF3396.2380164225774
aF3400.254109624874
aF3414.4342723833233
aF3417.150808623884
aF3417.5639698295613
aF3429.1930930817516
aF3436.4558535472447
aF3437.175808934893
aF3451.7579973779616
aF3453.878963308409
aF3457.6200281199203
aF3458.072612409644
aF3462.282881164711
aF3472.3991572949544
aF3473.8163174802758
aF3495.978099221625
aF3519.2143581731943
aF3519.7623241618408
aF3538.356523222148
aF3540.65382957634
aF3549.82438258415
aF3549.960245805683
aF3557.0448208188723
aF3567.7406904211575
aF3574.0198485897167
aF3574.907187593048
aF3574.9798694158
aF3575.8810338790204
aF3586.9563119491036
aF3587.607769594103
aF3588.95662989744
aF3597.6761492355986
aF3599.345347811501
aF3599.7773212445218
aF3604.8998371465786
aF3611.2503459017985
aF3612.069362150606
aF3615.614146779561
aF3617.3240022743175
aF3628.592926894962
aF3638.7996485434055
aF3647.4669378857075
aF3649.913339863375
aF3654.147366633196
aF3658.659206197662
aF3664.5157240749295
aF3678.058116220429
aF3681.3669634152598
aF3682.4255760884193
aF3684.792943659409
aF3686.009890451723
aF3689.4532137716265
aF3690.409792759185
aF3702.212830389693
aF3710.9991996148833
aF3715.7039790626386
aF3717.3950858292446
aF3720.7182259141164
aF3730.7821568122813
aF3732.664554417592
aF3741.0573801471155
aF3744.333328486791
aF3750.8970015110176
aF3755.8536497406785
aF3769.7312392180584
aF3775.5264451622816
aF3779.6961793132245
aF3782.9030241942337
aF3790.4481495459827
aF3800.445020533768
aF3801.108103639645
aF3804.4002652574127
aF3806.48550811412
aF3832.3490652584837
aF3835.8328271649802
aF3838.1699332401117
aF3839.254726661105
aF3841.731938185561
aF3844.811127396598
aF3844.8233568983296
aF3847.2514162557823
aF3847.9402442024048
aF3852.3314431549647
aF3853.0927546508346
aF3854.5423849317717
aF3854.953949887607
aF3856.2964299704813
aF3858.736659833039
aF3863.5215499742762
aF3864.6006886019686
aF3865.7915017801984
aF3874.0472314282547
aF3882.678465922663
aF3882.8585972085148
aF3889.1179817419256
aF3893.39836946805
aF3893.7577359299344
aF3894.5247813204787
aF3898.125775893226
aF3911.3138113518025
aF3921.0346288823803
aF3924.110743079063
aF3924.1153274982053
aF3928.316666322271
aF3937.38315869651
aF3938.8901808093356
aF3939.842051127026
aF3939.940205097784
aF3939.983577171817
aF3943.0672390778573
aF3943.6314571414214
aF3954.3641249540597
aF3957.317801723351
aF3962.2286847040723
aF3964.8149758243994
aF3976.9617728347093
aF3984.579200726612
aF3994.317375938265
aF4000.7750785538988
aF4002.8556531387567
aF4013.4928166703485
aF4017.103261926737
aF4020.106207864476
aF4021.3662383784635
aF4037.7990120753034
aF4039.55689209979
aF4049.279212682692
aF4050.572572161513
aF4057.8633486211256
aF4074.7898505204876
aF4084.828377893541
aF4090.0465785126603
aF4091.345054875158
aF4092.0012124190916
aF4099.671218020536
aF4101.745229094005
aF4103.274507760959
aF4105.833694961391
aF4106.60926334331
aF4107.007197242318
aF4112.688028329676
aF4115.081054164652
aF4115.106316857335
aF4117.185283473367
aF4117.723398966535
aF4118.036513102568
aF4118.134403700461
aF4118.665161500093
aF4120.36467400056
aF4123.507946962403
aF4128.945067327615
aF4144.507627161483
aF4145.240505780765
aF4151.257777602269
aF4152.58670549326
aF4154.431454324081
aF4157.6796837763795
aF4158.195516245238
aF4165.646891407017
aF4170.700755731912
aF4172.194519425614
aF4172.421578283912
aF4173.290038769621
aF4173.297413267606
aF4174.479533116755
aF4177.720465918806
aF4179.468431782675
aF4180.306092739759
aF4193.80569137807
aF4199.057672522142
aF4203.475260330116
aF4204.562313180302
aF4211.78914568261
aF4223.274090243569
aF4224.911295731384
aF4225.777508232081
aF4226.2166372500415
aF4230.495605632555
aF4236.850303144224
aF4239.318229446814
aF4239.463499394066
aF4245.862884793607
aF4251.4336220026835
aF4261.682102810753
aF4262.343017571826
aF4264.9458396115915
aF4268.309245589065
aF4269.366863445822
aF4273.817307468833
aF4280.1417491927905
aF4303.4972229422965
aF4337.0337391934345
aF4338.341174928163
aF4341.963193023839
aF4342.13720710341
aF4350.858994084411
aF4368.689905194055
aF4371.4726034034575
aF4373.324349189976
aF4375.687147801049
aF4377.365731541692
aF4382.217348479602
aF4386.062204160644
aF4386.730081580036
aF4389.195643865879
aF4401.9882881025505
aF4407.107992061413
aF4408.8304647722925
aF4409.396660645242
aF4411.026591745279
aF4422.36398744476
aF4424.247810506685
aF4426.218207262668
aF4427.077848997306
aF4429.6490823730965
aF4430.0933101133305
aF4430.631464187776
aF4434.670591574426
aF4436.410547934842
aF4439.170275748575
aF4441.461508937442
aF4446.219144675372
aF4451.937170306036
aF4452.723828362463
aF4456.731229556265
aF4464.618365081507
aF4482.119716148137
aF4486.168069622617
aF4487.417894760317
aF4492.928627512806
aF4495.829097026245
aF4499.221934538966
aF4499.2349914903125
aF4499.63497928234
aF4500.374007089813
aF4503.049571126849
aF4505.856059236084
aF4505.898633098552
aF4508.938442040958
aF4510.194686883806
aF4516.804569897518
aF4522.775418300269
aF4525.225773965183
aF4527.288963054914
aF4537.739884335702
aF4543.082426831392
aF4544.971036611186
aF4546.939185262511
aF4552.704774055691
aF4556.891685863089
aF4564.8429997922
aF4567.2153184979115
aF4574.999698667961
aF4581.309655866522
aF4583.850745544746
aF4593.877943354503
aF4595.824363248794
aF4596.24934111031
aF4602.292357103947
aF4613.329235133939
aF4622.095802139342
aF4623.6011064700615
aF4628.464340840399
aF4637.133179602372
aF4648.144642094542
aF4660.672941116444
aF4667.7910528238
aF4671.10155557521
aF4671.909143778638
aF4672.0501081371185
aF4672.205515522664
aF4678.465751260598
aF4679.730354760484
aF4694.236171196551
aF4694.532798121852
aF4701.46282188505
aF4705.520974232073
aF4718.919953351624
aF4719.011603844985
aF4729.14156031351
aF4735.5915160812365
aF4758.798939774744
aF4761.201708261908
aF4761.8738882613015
aF4763.671750563436
aF4765.391511811298
aF4774.18130216715
aF4780.408671512565
aF4780.7041002963315
aF4781.161961221893
aF4801.577905971798
aF4808.621906331449
aF4823.749298694847
aF4829.038287030994
aF4835.486045376102
aF4835.512763747944
aF4840.903511238493
aF4841.320000355694
aF4845.796962881798
aF4848.383546855567
aF4857.217075519028
aF4859.768679107343
aF4863.820256486279
aF4865.226518526478
aF4865.755359462016
aF4874.814458820251
aF4877.11164988255
aF4885.305796694356
aF4887.689290018753
aF4888.457702949393
aF4900.114396519872
aF4900.231683309148
aF4913.502094005985
aF4921.68346944627
aF4933.19412939067
aF4937.403622970116
aF4940.3018955508005
aF4940.871253724741
aF4953.53863428584
aF4954.913461749053
aF4964.148253690823
aF4968.223103105589
aF4984.200285739947
aF4985.998737399985
aF4987.640900448302
aF4990.689171481392
aF4997.267232766507
aF5004.620087367792
aF5007.30267504605
aF5014.651546587053
aF5014.921260978389
aF5019.568108931782
aF5019.841299133333
aF5020.889676796468
aF5021.091661982366
aF5025.376588426145
aF5030.798596513675
aF5030.894382139584
aF5032.210152471106
aF5034.146318722709
aF5035.001731706057
aF5035.884822773517
aF5041.621893564878
aF5042.017369087767
aF5044.864719879916
aF5052.5877502438825
aF5054.649648462316
aF5064.637440862102
aF5074.138171052381
aF5075.694387004126
aF5077.442090920044
aF5078.431080328083
aF5091.878069456191
aF5092.22632463502
aF5098.770642172963
aF5099.231866021543
aF5107.123611920211
aF5110.127228988817
aF5115.688186373037
aF5115.7355567199975
aF5120.615732447049
aF5130.692196165058
aF5134.649401764382
aF5134.70061051523
aF5146.487024985679
aF5150.297117488831
aF5151.816017070826
aF5154.647682651382
aF5164.232674525469
aF5166.026892698246
aF5191.77174426313
aF5196.812318922672
aF5203.263550974044
aF5206.183366419622
aF5210.336340982652
aF5215.1620807300205
aF5216.429593448002
aF5221.569413247354
aF5226.053148524346
aF5226.6783451919655
aF5228.575321897558
aF5242.668990956484
aF5261.949930494631
aF5263.064107793574
aF5266.470361665683
aF5284.5757394501015
aF5285.3329976460755
aF5296.74402642426
aF5311.984552075414
aF5318.74212603989
aF5318.97278744229
aF5323.155057422684
aF5324.276787813206
aF5325.474996392007
aF5328.180290762177
aF5338.474230941104
aF5342.960616204067
aF5346.140698684164
aF5354.871188290233
aF5355.14249159207
aF5362.876737112982
aF5363.373139095841
aF5371.102118198468
aF5371.177201886617
aF5386.9621357368105
aF5390.61066339512
aF5394.830311398127
aF5396.901295395201
aF5407.065177588459
aF5412.991152400565
aF5414.06778269865
aF5417.253697114255
aF5422.349306778472
aF5424.449953664722
aF5427.034017895652
aF5427.22911881267
aF5429.27272526855
aF5430.274179693791
aF5434.756982782074
aF5436.336312362826
aF5443.796398645031
aF5449.570525995889
aF5452.395484131062
aF5453.911033419528
aF5461.635585300981
aF5465.811466077156
aF5472.135853384733
aF5475.318147222369
aF5477.714167007994
aF5482.005733708958
aF5490.808469027632
aF5491.622551225022
aF5496.461731883062
aF5497.914767690874
aF5508.1644190520265
aF5509.282710453361
aF5511.075554419503
aF5515.808087752691
aF5529.756801527639
aF5532.118316421384
aF5534.0159084648485
aF5534.822465697434
aF5535.69061269378
aF5543.122040286637
aF5544.268034404025
aF5548.432747824027
aF5553.503389778184
aF5553.546560869204
aF5554.4396059662295
aF5554.809884429749
aF5559.046100008241
aF5566.403873292015
aF5570.344684624762
aF5573.890207937041
aF5574.284289837554
aF5578.2714623765605
aF5578.59163943878
aF5587.565466747949
aF5592.497886796894
aF5593.048592888544
aF5603.190866005106
aF5604.032101838022
aF5608.539899393301
aF5608.870704895259
aF5620.768129454755
aF5622.19248289319
aF5625.381405824761
aF5625.925594893603
aF5626.040255277234
aF5632.488832075295
aF5633.76316587065
aF5637.376796639055
aF5645.159282835079
aF5651.945725653027
aF5652.0206748707415
aF5652.8942278178965
aF5653.256888065956
aF5653.395416198871
aF5655.485067180419
aF5658.928761625397
aF5670.186352318477
aF5677.3630778442375
aF5677.426001543367
aF5688.639928763782
aF5696.231376031226
aF5704.582932050859
aF5717.526467343658
aF5719.014322251604
aF5723.233997800426
aF5727.821012313844
aF5728.846610131635
aF5729.037973227391
aF5730.210615709333
aF5747.294054056339
aF5751.340430511335
aF5751.540334539423
aF5753.331754177894
aF5772.367065769899
aF5774.665908553094
aF5775.780323986208
aF5776.870293134857
aF5783.700468105846
aF5787.362391865234
aF5794.832370883889
aF5797.968583802875
aF5801.589799105633
aF5808.710986042116
aF5813.190572289995
aF5813.236761888918
aF5826.185950639577
aF5832.101296678611
aF5837.0020013248795
aF5845.292820484016
aF5852.363577096354
aF5861.087078138687
aF5865.0746222662165
aF5865.170086942161
aF5866.39958933611
aF5873.393400500208
aF5876.298874387025
aF5882.706057771883
aF5887.427008295618
aF5904.534979237301
aF5907.746910036723
aF5908.231485387864
aF5911.662374715081
aF5913.546341381835
aF5917.482094750408
aF5928.4257828111695
aF5937.909992830559
aF5938.862627062562
aF5946.533220543802
aF5952.111020480532
aF5959.336352246958
aF5973.635404209647
aF5983.393562151685
aF5986.277221886657
aF5987.958916072149
aF5993.867039556938
aF5995.512415899462
aF5999.210923487583
aF6003.481527484279
aF6019.562484515979
aF6024.827902142605
aF6028.883075201992
aF6031.124446119106
aF6034.051253804408
aF6052.559333294248
aF6059.890528394437
aF6062.312213559464
aF6064.764969574516
aF6068.490086150159
aF6071.28063326665
aF6084.309202158001
aF6088.12762627924
aF6100.517073822582
aF6101.739981178211
aF6102.562717188649
aF6107.120064020118
aF6108.377610987344
aF6113.973674533147
aF6114.856306230011
aF6122.828639664638
aF6136.895739718004
aF6138.705280266205
aF6140.142968470873
aF6146.641969552171
aF6147.717289198708
aF6156.92598494603
aF6158.02673016223
aF6165.773923767608
aF6166.522099733722
aF6171.631303974549
aF6173.948196124749
aF6181.654630253143
aF6191.29463534654
aF6197.093216271267
aF6197.180558396339
aF6200.737751707542
aF6203.97489733006
aF6205.537199776704
aF6219.21482811379
aF6225.288230097228
aF6232.455890536915
aF6235.243586664039
aF6250.772681366458
aF6253.114647195149
aF6270.1479142582175
aF6276.542955753426
aF6285.325147211292
aF6300.0991728438985
aF6322.915507101057
aF6330.245326887204
aF6331.127427682676
aF6332.872946640417
aF6337.953377940126
aF6339.540293129376
aF6341.544679521668
aF6348.62885189317
aF6354.652639770429
aF6363.234707629543
aF6373.747733691817
aF6379.113659096343
aF6379.783083463703
aF6385.681773832288
aF6389.072533768713
aF6400.125829083591
aF6405.828712760154
aF6409.469498041669
aF6410.3716437588255
aF6410.432998723696
aF6421.59966474379
aF6422.265235236214
aF6432.15351109707
aF6433.053953071828
aF6433.998720389295
aF6441.273440077469
aF6451.070186138371
aF6455.117109088978
aF6459.9673392216155
aF6461.70537850949
aF6461.727682191236
aF6464.453468049305
aF6471.608379598714
aF6473.2441398727
aF6476.298471586535
aF6479.202159367819
aF6481.580974323124
aF6485.595630821163
aF6489.783343913205
aF6495.301463405179
aF6496.28796653798
aF6502.348689697027
aF6505.440563563721
aF6505.556064238709
aF6506.373836732976
aF6514.453681706575
aF6517.441902746866
aF6523.048610376912
aF6526.811658918669
aF6536.8219197131475
aF6551.601168892455
aF6553.398673056703
aF6555.322784599966
aF6556.210034259676
aF6561.496201043475
aF6567.320615091734
aF6569.399027698364
aF6572.130754185417
aF6573.487566628286
aF6575.3177633788255
aF6581.618884670441
aF6582.2066856425035
aF6582.427972423068
aF6582.719627903685
aF6586.726699042282
aF6590.231204587182
aF6593.7040409765195
aF6596.130062648284
aF6604.860283913242
aF6613.126098385927
aF6616.829504403319
aF6616.924830396764
aF6621.6822926904315
aF6622.087906340125
aF6627.1703568427265
aF6639.500148327069
aF6640.422973849549
aF6641.823990250379
aF6645.055553997269
aF6649.531377837273
aF6653.34733260019
aF6658.126796002583
aF6665.77483995155
aF6672.663131887286
aF6676.056302714619
aF6679.494156581987
aF6680.210478236628
aF6686.030391935171
aF6686.145066604893
aF6688.71411830937
aF6690.443313272384
aF6709.323600503606
aF6711.73469525424
aF6719.832320559804
aF6727.889351644047
aF6731.73247279457
aF6733.165231417029
aF6740.481976165383
aF6746.149234838558
aF6751.834213060374
aF6766.911486675301
aF6769.330070280312
aF6773.928685980883
aF6782.068338287087
aF6789.583892927229
aF6796.376515107575
aF6796.533600904896
aF6806.803417607048
aF6819.303305406568
aF6819.383851081116
aF6820.579930438866
aF6822.628737835067
aF6828.07075398636
aF6831.675257631133
aF6832.3723594605635
aF6833.668904502602
aF6835.045085797154
aF6840.573150108393
aF6846.148808576925
aF6857.491745719612
aF6867.750580526195
aF6868.703247716074
aF6871.291249153058
aF6882.256565250738
aF6885.968946221585
aF6891.689374568855
aF6893.179946955632
aF6893.343022440255
aF6895.66489496653
aF6903.017999732651
aF6911.608368965106
aF6912.595641894009
aF6914.620959545008
aF6915.247573968961
aF6917.561748855549
aF6919.343720611857
aF6924.898203521059
aF6934.257203268521
aF6936.269334707757
aF6941.56040266117
aF6950.273667378158
aF6962.528372732672
aF6977.908204128753
aF6979.579390703145
aF6979.857113792052
aF6995.612166504668
aF7002.319843087325
aF7003.507496731568
aF7011.772550800416
aF7012.203694069176
aF7022.590048604114
aF7030.4887658297075
aF7032.06407425509
aF7033.499076032256
aF7035.001752453472
aF7041.359021947889
aF7051.577672459176
aF7060.985912810974
aF7062.677698860984
aF7064.98113992806
aF7065.747583996905
aF7067.488439617313
aF7070.935198926413
aF7074.722768503772
aF7094.789626475689
aF7098.707464063281
aF7098.7980428937435
aF7100.895516489219
aF7101.543439134039
aF7104.976027238062
aF7106.3589486414585
aF7108.587045971955
aF7120.996318875368
aF7122.639359451804
aF7133.929476964916
aF7138.149409846308
aF7138.447103354099
aF7139.908492761838
aF7140.298842567904
aF7146.277894649848
aF7152.804072115856
aF7153.175396969027
aF7158.2854786843645
aF7159.952816848394
aF7161.2250040004765
aF7163.996327927596
aF7174.549780754884
aF7176.287094047417
aF7177.916661511179
aF7197.54450267674
aF7200.270825659858
aF7200.9180947337045
aF7203.281639553153
aF7204.042201165317
aF7205.2515236428235
aF7205.889191300777
aF7206.530420139737
aF7207.992087923114
aF7218.373538729625
aF7218.963925104665
aF7224.404085156701
aF7225.673055785088
aF7227.608324954731
aF7235.43954078626
aF7236.509373668987
aF7237.18573983701
aF7240.12274590633
aF7245.928640611565
aF7246.395437231226
aF7246.640954288076
aF7252.155047260051
aF7261.704399963663
aF7268.025282504007
aF7271.234767939481
aF7272.719356339305
aF7279.222260943484
aF7286.984711491949
aF7296.069368296548
aF7297.823579863464
aF7301.296334135685
aF7301.936661116802
aF7307.690621929379
aF7315.677504086169
aF7319.4026390031195
aF7333.808496898381
aF7342.476262261286
aF7345.2015274286
aF7357.695140226547
aF7361.712877163155
aF7366.3812978987935
aF7378.368034968659
aF7382.136571939781
aF7383.51759952591
aF7384.421776755785
aF7396.4161121133075
aF7397.06263092267
aF7398.232048007832
aF7400.937445884886
aF7404.062978965611
aF7404.974703453908
aF7406.984436954144
aF7421.57905666755
aF7425.097559826467
aF7426.450378682369
aF7426.749236698223
aF7433.34076517704
aF7437.890547556808
aF7439.170082028682
aF7439.927568555034
aF7446.309759146968
aF7448.277170343547
aF7448.966703044615
aF7449.369544832683
aF7450.403036463521
aF7451.093197770351
aF7454.834724473379
aF7455.0750212856
aF7457.684199176596
aF7458.261415434499
aF7463.531263284649
aF7465.558836962426
aF7466.599263250043
aF7470.431551086509
aF7473.994932946432
aF7480.543525499582
aF7482.574691150368
aF7482.804682260784
aF7488.446609731757
aF7502.55475454119
aF7517.089061414682
aF7538.367246109899
aF7540.206021994156
aF7543.536796575264
aF7545.455436780547
aF7549.51151503045
aF7555.797767906614
aF7558.946939173297
aF7565.597459864816
aF7572.975931439984
aF7577.812561641964
aF7581.653603865122
aF7589.984100348932
aF7590.554855380726
aF7595.7491988133725
aF7596.477980233217
aF7598.236818218019
aF7600.847847000609
aF7601.013687775976
aF7612.424053564277
aF7615.42872058499
aF7621.728947578918
aF7622.685763664936
aF7640.044482229202
aF7643.233002118792
aF7643.287497358173
aF7644.605138045514
aF7647.724708671718
aF7649.4018499071
aF7650.868904551163
aF7655.094771459944
aF7655.963674517748
aF7660.952871526083
aF7665.723031428151
aF7669.970619134575
aF7684.215769196657
aF7684.543308985122
aF7687.248899114092
aF7701.099950491583
aF7703.625324322492
aF7705.483015299443
aF7708.43948774451
aF7728.283015208868
aF7730.383491824303
aF7738.134806561027
aF7743.977541428449
aF7746.140120899413
aF7750.821994543065
aF7752.119108998792
aF7757.55230820398
aF7764.686718720041
aF7767.750562410037
aF7770.050669141928
aF7774.787099121066
aF7779.833718784977
aF7780.843678028189
aF7785.626539187846
aF7786.4221960619225
aF7789.290793768363
aF7790.164650109574
aF7795.66048891188
aF7802.287611940129
aF7803.305362075112
aF7805.564544372615
aF7811.373820303736
aF7811.73282039375
aF7818.298798644329
aF7818.443986126872
aF7818.771329322055
aF7819.443916398931
aF7821.063482435898
aF7821.111956329508
aF7824.2922752518325
aF7827.762678387709
aF7831.449370101684
aF7839.622256097302
aF7845.703277096037
aF7853.678060814415
aF7855.766805238278
aF7860.230256366971
aF7869.968845775999
aF7879.557785375645
aF7885.761568810139
aF7892.323840292202
aF7893.820756008869
aF7894.076811580419
aF7899.319000307855
aF7902.865896110296
aF7904.7092831241935
aF7906.458161804501
aF7910.362035350826
aF7910.624480661584
aF7913.983721068626
aF7921.681904461114
aF7927.386574435257
aF7927.505279659327
aF7936.241000844192
aF7941.955540904155
aF7942.240676164678
aF7948.59128252586
aF7962.184476300503
aF7970.859818767384
aF7993.230345244081
aF7999.518524403757
aF8017.8089359059795
aF8019.577539841522
aF8020.513237690799
aF8041.31373109354
aF8043.503028425722
aF8052.247411689576
aF8054.454706640058
aF8057.147564633623
aF8080.333179028402
aF8087.004859330223
aF8090.751623987208
aF8092.5955902017995
aF8095.34353448978
aF8096.8514728324335
aF8097.673301089727
aF8105.27069206499
aF8109.131227441891
aF8116.653834728247
aF8120.621326216177
aF8125.995743996482
aF8130.058133833917
aF8134.913245869412
aF8138.409279019219
aF8141.055381009554
aF8145.03938092354
aF8151.302270038884
aF8172.602555454249
aF8180.032564153232
aF8186.636727842688
aF8187.694702379511
aF8196.603401025131
aF8207.910671613665
aF8209.34114918212
aF8216.142291876644
aF8225.857154123418
aF8232.739879957711
aF8233.406197185994
aF8238.438899243265
aF8239.093234841172
aF8243.907408160969
aF8257.275846519777
aF8259.33147071007
aF8264.761063061249
aF8269.889008726124
aF8272.396380171675
aF8275.479311607052
aF8285.106882986634
aF8287.104296489544
aF8291.313498523574
aF8291.595140728388
aF8303.607041216832
aF8307.56728291614
aF8309.604002295422
aF8326.738978017956
aF8341.977658958232
aF8344.656376556257
aF8347.367705965973
aF8348.298883634297
aF8351.358353465544
aF8352.886031570948
aF8355.921127736905
aF8359.639033127482
aF8377.749512979277
aF8387.090664612564
aF8389.784629277154
aF8399.055962232263
aF8400.740027962876
aF8401.385492873113
aF8402.434874242932
aF8412.894733391237
aF8415.675230098783
aF8417.846765789853
aF8424.895447789651
aF8429.209894812366
aF8430.206347422936
aF8439.126154920277
aF8444.940840333182
aF8458.333722762049
aF8459.317957144143
aF8476.931271921101
aF8482.994197948885
aF8483.739875773235
aF8490.13610546208
aF8508.458398306797
aF8512.03512384488
aF8525.427101603416
aF8527.694795866735
aF8534.692482978935
aF8546.461300848552
aF8550.622125868857
aF8551.396278521092
aF8557.929584410105
aF8567.27971732584
aF8575.181200361048
aF8580.043688023938
aF8595.798302151275
aF8609.046410282448
aF8643.614353080264
aF8646.296662266504
aF8647.147853564049
aF8654.43051929276
aF8658.168919919648
aF8669.229589234053
aF8678.741500867312
aF8679.796082563842
aF8682.623469733046
aF8691.081696059971
aF8692.386820532905
aF8695.219147208161
aF8698.708949863232
aF8700.94428802828
aF8706.514084210396
aF8710.840406304847
aF8724.701796876296
aF8727.669128717866
aF8734.655705106843
aF8735.167786960641
aF8736.909926235874
aF8738.911594518117
aF8739.370269609964
aF8739.589657865987
aF8742.93712136002
aF8744.635019942756
aF8746.582842737176
aF8748.232714596566
aF8748.238285957821
aF8749.74925572089
aF8760.85467448915
aF8765.393099679446
aF8777.821463937511
aF8779.37875398161
aF8783.391803163015
aF8784.56794326596
aF8787.252322811062
aF8812.397896077979
aF8812.576003722303
aF8814.117913748243
aF8818.492383337503
aF8825.543815878083
aF8834.42338511692
aF8837.239844803356
aF8845.14452941556
aF8847.148924639909
aF8852.186988998492
aF8853.567128454724
aF8857.21633840416
aF8859.427682642337
aF8866.672786828662
aF8868.32670603895
aF8872.295406926656
aF8876.698186827656
aF8881.984505290067
aF8882.320609266251
aF8885.281479248964
aF8886.332293819436
aF8890.296499065664
aF8892.500197407146
aF8896.231830157283
aF8910.831263648479
aF8923.0152974226
aF8931.862792287327
aF8933.434196846216
aF8937.130753828244
aF8938.042546916362
aF8938.431067668354
aF8938.99217838095
aF8939.31874882532
aF8942.075500328247
aF8943.019514851712
aF8945.529778060121
aF8945.639649707735
aF8954.416616022381
aF8964.07438302852
aF8964.191112174134
aF8966.194699182864
aF8967.883442315388
aF8974.712143968947
aF8978.149521249446
aF8980.747181950552
aF8984.972790500018
aF8988.488716265425
aF8999.443776968545
aF9002.66536513302
aF9013.844437450605
aF9023.924679517713
aF9026.969163997373
aF9027.47115405499
aF9028.28720129722
aF9030.873062909177
aF9041.512277794134
aF9056.163381119495
aF9058.629941513087
aF9073.053462510516
aF9083.31479718119
aF9090.691544352017
aF9092.774948024231
aF9093.733050580366
aF9096.924041474647
aF9107.238440707633
aF9116.988357657632
aF9122.206420175622
aF9130.287740546142
aF9131.285503181149
aF9139.793266179313
aF9150.42058609644
aF9157.00842979663
aF9157.251901486467
aF9157.34038968282
aF9171.933641906999
aF9174.42201954404
aF9176.564709395392
aF9177.872855541364
aF9179.417482883093
aF9188.597473640042
aF9195.934036711602
aF9200.786504719046
aF9203.102411076328
aF9204.439684431716
aF9210.379393865473
aF9220.58508556998
aF9223.338366509588
aF9231.295627537134
aF9236.451746192126
aF9237.414559590965
aF9238.422088788575
aF9244.558758488638
aF9257.886805894846
aF9258.914356794858
aF9263.859279416452
aF9275.020298492065
aF9277.239095109875
aF9278.55375923911
aF9278.558271803033
aF9281.984515585753
aF9284.82633882482
aF9287.56074332676
aF9288.15315031436
aF9288.725349390637
aF9296.830724678135
aF9299.62005293189
aF9309.488877721906
aF9309.61444345256
aF9318.96422596702
aF9321.249538859269
aF9328.501455074205
aF9331.44531428039
aF9331.968119986963
aF9338.790238756328
aF9367.998858908844
aF9381.23929739164
aF9386.518889478759
aF9387.248698880523
aF9391.933215561987
aF9398.367577386072
aF9409.88351486659
aF9412.33952774987
aF9417.869999436141
aF9421.85312791204
aF9446.700848997936
aF9449.813666223476
aF9465.993850801851
aF9470.949727544037
aF9479.781341267386
aF9484.141882474516
aF9488.737394868196
aF9489.329400479937
aF9499.067302637975
aF9501.441746348906
aF9506.341084563383
aF9511.70794694922
aF9526.107792343166
aF9534.55116314963
aF9536.516232162154
aF9539.175460278799
aF9545.368497783946
aF9545.54381416748
aF9545.938873714598
aF9552.556291781062
aF9558.062899801867
aF9560.561145840049
aF9561.307700680165
aF9562.539921224741
aF9570.485982384691
aF9579.076549380688
aF9581.207750404257
aF9581.35838734609
aF9588.215709707592
aF9590.59705545363
aF9598.099679325142
aF9602.175382642563
aF9621.647866212461
aF9625.472045064338
aF9629.228112622455
aF9634.715614642182
aF9635.811727454868
aF9638.46399124099
aF9652.470363315471
aF9652.675774212119
aF9653.822516369171
aF9656.760213347861
aF9659.54464122337
aF9673.934539141235
aF9674.632495385695
aF9678.002878491021
aF9679.021694880043
aF9680.811551455423
aF9681.42540693416
aF9683.139909892172
aF9689.431643199476
aF9691.00788860908
aF9703.666785644838
aF9703.803664539399
aF9708.865905786897
aF9713.067640613737
aF9713.75694260791
aF9714.737733940885
aF9716.953487911896
aF9718.004033113484
aF9725.47462986482
aF9727.074737128114
aF9737.140750530649
aF9749.544418587671
aF9762.228458992768
aF9777.208600683129
aF9786.246018595539
aF9800.531288405771
aF9803.694597283618
aF9808.765174984475
aF9810.241161198319
aF9811.191485818772
aF9814.895757253042
aF9815.10962722529
aF9827.403572075931
aF9829.185458142958
aF9829.380327040248
aF9849.490105716477
aF9851.198310259104
aF9852.258829568626
aF9857.514937644863
aF9859.302188112239
aF9861.285006145346
aF9864.71918629552
aF9867.00979065758
aF9867.48194393552
aF9868.442440428922
aF9871.175675846638
aF9873.219228729082
aF9880.341312651226
aF9884.972528275237
aF9890.260815894066
aF9895.771525107297
aF9901.571186346278
aF9910.522680708145
aF9914.938451610138
aF9921.823795483086
aF9924.291845612686
aF9924.663976285077
aF9933.975265746412
aF9936.851295103892
aF9941.160983309544
aF9941.625693031066
aF9941.704948249338
aF9941.740474582384
aF9942.558830396752
aF9949.76763168408
aF9957.221077407134
aF9958.958641358386
aF9962.53924680476
aF9977.525814159131
aF9981.78091700214
aF9984.566723226606
aF10006.656153057063
aF10013.628506849582
aF10017.341939799235
aF10022.83204133673
aF10026.807364638444
aF10030.261841075742
aF10042.570458770231
aF10052.502236966791
aF10060.350021517377
aF10060.74973906551
aF10075.588048504653
aF10075.738405671138
aF10076.135143458023
aF10076.662209215065
aF10079.243489478013
aF10087.003089992282
aF10093.866683524458
aF10096.725090094817
aF10106.448397741002
aF10107.98107496579
aF10119.585320187758
aF10123.600604234716
aF10127.363986278235
aF10128.284280498792
aF10141.24500890517
aF10151.32965197673
aF10153.195789539466
aF10168.730309429619
aF10169.400405233167
aF10169.951376005738
aF10171.413495247625
aF10182.53696654696
aF10184.687193314201
aF10188.115969610144
aF10196.491510700198
aF10197.235609653002
aF10197.60075669427
aF10211.560734451878
aF10217.62806754582
aF10221.368492689024
aF10233.584079328279
aF10236.970674423126
aF10242.01582894295
aF10248.21776396044
aF10256.438299514546
aF10264.865032288166
aF10270.846806308966
aF10276.97903390628
aF10281.38993028409
aF10291.451733840702
aF10293.992779400982
aF10305.931835939817
aF10306.193485999753
aF10311.018870771048
aF10314.136549706505
aF10320.253303601947
aF10324.457297808456
aF10324.781373447324
aF10325.495250600336
aF10327.875926889617
aF10328.967331340837
aF10347.532036982322
aF10349.709760338648
aF10366.32945520314
aF10372.276059638303
aF10374.099411734223
aF10374.483484114615
aF10380.799627679191
aF10387.240441431553
aF10403.194077096574
aF10405.722922276429
aF10418.102300810153
aF10425.227608036397
aF10436.095098093478
aF10439.364699076368
aF10440.264322049952
aF10440.617528185403
aF10443.339117816238
aF10451.94634448562
aF10453.937321735355
aF10455.363171820763
aF10459.893398813501
aF10465.607078243174
aF10468.484808650306
aF10470.222369995536
aF10477.221126988574
aF10487.896856296384
aF10489.333951069584
aF10497.51507321833
aF10501.886875576034
aF10502.800218502574
aF10503.124955954478
aF10520.86415218482
aF10522.420348643098
aF10527.080815811743
aF10531.021818946885
aF10542.257344955047
aF10560.47899903699
aF10564.108297057619
aF10571.086520807894
aF10572.545282813184
aF10577.095087772272
aF10577.330198584901
aF10589.876666120703
aF10598.148643531655
aF10601.258137681347
aF10606.521021322895
aF10610.936090593601
aF10611.388932982234
aF10615.395039096928
aF10616.311060471458
aF10617.431053920547
aF10620.736228985266
aF10623.608741520373
aF10625.576207731016
aF10625.691831306001
aF10630.326174386371
aF10637.450488109927
aF10644.275324523976
aF10656.117797882325
aF10660.19006204839
aF10676.930469980955
aF10680.937572903116
aF10685.640812868107
aF10686.236098103722
aF10689.170723456125
aF10700.51071731215
aF10704.307343454377
aF10710.180540954716
aF10717.062172086278
aF10729.953462612088
aF10732.415453546595
aF10734.481369651281
aF10737.543801886968
aF10741.197364483658
aF10742.10213452754
aF10748.289534883244
aF10765.104213648694
aF10767.505490759824
aF10775.49989216498
aF10781.66058490044
aF10787.424332341268
aF10798.930329969558
aF10809.283892991318
aF10816.843835930762
aF10825.257592471866
aF10835.493867145995
aF10837.322638607438
aF10838.651563329908
aF10840.982413435186
aF10848.772079154673
aF10858.420394714893
aF10859.80857159737
aF10863.069734208217
aF10865.716024571244
aF10866.622958223365
aF10866.691357196965
aF10890.11613248973
aF10895.658767578201
aF10898.239484424006
aF10898.602425029916
aF10905.335099223457
aF10906.117528485329
aF10907.14167303336
aF10909.310801891874
aF10911.318780980691
aF10912.898168735834
aF10916.071197552184
aF10918.281272161312
aF10919.12483426572
aF10924.498335034605
aF10925.632844946695
aF10929.020320947653
aF10932.125574343076
aF10934.53797240843
aF10935.85100720628
aF10937.512941097593
aF10937.803535053725
aF10946.325004349534
aF10957.958961143977
aF10958.714861415861
aF10962.545111761594
aF10970.575620710197
aF10975.111317022556
aF10985.527551830564
aF10992.460972016395
aF10992.705636195069
aF10994.13457499911
aF11000.077122218025
aF11002.430109525418
aF11004.189878051031
aF11007.48886113934
aF11013.898047973205
aF11013.9126895362
aF11017.868555857995
aF11018.931691594324
aF11019.379762332179
aF11019.465251553751
aF11025.37705659903
aF11038.674603648706
aF11039.741226015864
aF11040.227030293938
aF11041.388617402688
aF11044.290007842694
aF11047.238025518009
aF11051.26103654284
aF11056.33617386688
aF11068.91284126313
aF11074.80578688339
aF11087.230421524679
aF11089.675693390715
aF11091.024529288008
aF11095.158562798639
aF11096.401371230375
aF11099.092696282023
aF11099.887540742227
aF11103.627010712478
aF11104.37209998088
aF11117.420273456995
aF11119.990239682864
aF11122.324596060162
aF11123.938183730665
aF11131.538894489617
aF11138.009941435821
aF11141.596365136586
aF11142.796315926646
aF11148.603235035842
aF11150.686588319366
aF11150.823399021183
aF11150.93043353383
aF11153.466587643752
aF11160.632138944084
aF11177.671458206762
aF11179.311350968737
aF11179.779372837847
aF11190.109084919333
aF11200.550474242062
aF11205.88922675804
aF11211.99925151353
aF11212.569572345847
aF11216.141560937062
aF11223.03743105671
aF11226.033405900922
aF11239.383688137872
aF11239.418350214257
aF11241.729091882653
aF11258.369189286092
aF11260.028979493713
aF11260.718320877297
aF11260.755576817452
aF11263.099896018006
aF11263.58330388601
aF11273.689950075657
aF11275.214930985308
aF11283.7800952091
aF11288.119309301865
aF11290.736179201891
aF11290.780891374034
aF11299.41388565733
aF11303.660073899977
aF11305.302679709863
aF11316.876812759148
aF11321.446583801448
aF11322.080064527887
aF11327.207253872386
aF11334.918373272043
aF11338.036638646961
aF11342.662390864392
aF11354.376195278828
aF11362.525536431598
aF11362.873343960962
aF11374.480456255182
aF11376.747540852022
aF11385.351041175289
aF11385.787674295689
aF11386.675186482948
aF11389.348771636453
aF11395.848315239393
aF11398.859685169065
aF11404.88111655063
aF11407.266398257627
aF11411.214591225582
aF11417.933036567043
aF11428.65783978365
aF11430.32577336872
aF11439.312202260477
aF11440.413415927802
aF11440.559729765444
aF11444.73117864018
aF11444.96009263249
aF11447.450490369087
aF11466.56985650098
aF11474.651127478595
aF11484.337398532341
aF11485.488798475071
aF11491.611645965815
aF11513.22571849363
aF11513.26070100356
aF11532.332844802877
aF11535.898841120941
aF11556.009418774689
aF11558.911918648406
aF11559.915955949935
aF11567.923339956373
aF11581.916038767615
aF11582.751946593784
aF11586.286699262422
aF11587.071086575843
aF11597.034693845344
aF11597.44131632118
aF11621.514734345887
aF11622.5913876416
aF11625.229947097128
aF11633.83619803469
aF11635.310290219573
aF11644.086103667882
aF11648.861557190843
aF11662.477315611934
aF11669.668163810551
aF11673.27594750089
aF11689.951650110974
aF11692.596624922317
aF11695.676531595314
aF11699.09529606271
aF11704.895518314686
aF11726.759640451512
aF11732.694489453273
aF11734.166277089882
aF11742.044968782153
aF11745.00963556904
aF11745.555696396417
aF11748.223133977668
aF11750.145394490915
aF11755.213824110962
aF11757.753181037318
aF11758.912572621672
aF11765.57536121629
aF11770.555502441815
aF11772.585226164923
aF11774.338399699063
aF11775.490243030843
aF11779.641828527549
aF11794.017769348788
aF11799.815073060583
aF11803.046736170849
aF11803.433122863153
aF11805.184472642319
aF11805.947566376128
aF11810.427250684324
aF11819.648536101304
aF11830.425123929488
aF11842.849449402494
aF11844.929882025355
aF11845.08606636186
aF11853.570110631983
aF11855.983488891303
aF11857.127519782229
aF11862.257446506612
aF11873.795092305738
aF11888.136885962029
aF11889.77126868958
aF11890.74519530481
aF11894.204999366588
aF11900.076011042476
aF11906.118705902127
aF11914.137097921293
aF11917.792130995962
aF11919.593078171147
aF11921.695282112092
aF11924.876544797327
aF11930.110659217375
aF11940.238690738412
aF11940.794999789849
aF11941.385894260105
aF11952.933883902311
aF11953.580748832162
aF11955.2605613615
aF11961.38345046734
aF11967.216291873494
aF11975.645070355768
aF11985.496233621701
aF11988.40730288241
aF12000.813915508363
aF12005.89642523992
aF12008.38666504305
aF12013.789664437245
aF12014.057560746356
aF12023.892179820543
aF12025.555148200365
aF12039.804796052595
aF12040.625208343414
aF12044.443639924659
aF12055.410630728238
aF12056.480869320883
aF12065.693346451393
aF12072.540414506475
aF12077.005035469572
aF12081.126306012895
aF12082.939819902576
aF12083.447646238807
aF12084.520037192182
aF12086.268104500492
aF12094.541657849975
aF12096.29451809659
aF12097.239817026417
aF12101.618928034492
aF12105.151117504105
aF12109.015978481924
aF12110.925573401359
aF12128.174174928416
aF12131.228146580443
aF12139.113060519283
aF12150.142462859
aF12155.007659025054
aF12155.046492947107
aF12157.183097348487
aF12157.68460133464
aF12159.71329738844
aF12165.717974907207
aF12168.959631513972
aF12177.34592822691
aF12181.332758943923
aF12184.63866948279
aF12189.759049394313
aF12191.448883223453
aF12194.255608540327
aF12196.051252811545
aF12204.477599991484
aF12205.250962272052
aF12223.698831086173
aF12237.972929205438
aF12246.952965687558
aF12255.230213430848
aF12257.915105119188
aF12259.945299961322
aF12262.572245367282
aF12267.913043137993
aF12268.27440819593
aF12268.558213294293
aF12269.844259637332
aF12275.263425383806
aF12275.838879364144
aF12282.628175608797
aF12283.502363334155
aF12290.082993295151
aF12296.238095422219
aF12298.089023013514
aF12306.564230676375
aF12308.733786440178
aF12311.328045402006
aF12318.462374352355
aF12319.733036874619
aF12324.437138394338
aF12361.82438664281
aF12374.919023031527
aF12396.74011610363
aF12406.366825874014
aF12418.92756851604
aF12422.66997332441
aF12425.811039456012
aF12434.82460028296
aF12442.608831558468
aF12444.418088539393
aF12447.54250841408
aF12449.585386836865
aF12452.327220292607
aF12453.068366157639
aF12455.863692580382
aF12456.532802374339
aF12460.328783405188
aF12474.204771961022
aF12481.877377774144
aF12489.83527686471
aF12495.931703350912
aF12510.48614030955
aF12518.873392652513
aF12521.329145137543
aF12525.535548778014
aF12526.122449964092
aF12529.328349223626
aF12540.754099391834
aF12540.791928133007
aF12548.59178434499
aF12553.783826326548
aF12556.730633324383
aF12561.74278494505
aF12565.12967033139
aF12571.543446811464
aF12576.102844278768
aF12577.154354128967
aF12578.173164372412
aF12581.644191306192
aF12582.311095152245
aF12585.589028957937
aF12594.076227004227
aF12610.315998684217
aF12618.41796212248
aF12618.436283130399
aF12620.613367910022
aF12621.692420900576
aF12624.418536404268
aF12626.395437652636
aF12627.116406433603
aF12627.784189924054
aF12640.136989790166
aF12653.237463213021
aF12655.169223547993
aF12659.922812871966
aF12666.907497311777
aF12671.007191742516
aF12672.973154498693
aF12685.453513056595
aF12696.32276249271
aF12705.205953791577
aF12708.800929696374
aF12716.20056758441
aF12724.676934247345
aF12724.936376165258
aF12734.852835538155
aF12741.182318218995
aF12743.27740799339
aF12746.789964435206
aF12750.028977899236
aF12756.0466318777
aF12756.605408837704
aF12773.533432110202
aF12777.72070807592
aF12789.290258223182
aF12793.552575715066
aF12797.707491648194
aF12823.714787625926
aF12824.776666763886
aF12827.417377661508
aF12831.629381144272
aF12832.707587289862
aF12833.316275588752
aF12833.712302083653
aF12835.168683795435
aF12841.435288228653
aF12841.783574900943
aF12843.322546010702
aF12843.969017865567
aF12848.360271410838
aF12863.261909790419
aF12874.284101342826
aF12877.502081037548
aF12879.728063297414
aF12887.019129453298
aF12890.890965035349
aF12894.993024587337
aF12900.125697574185
aF12908.454054826265
aF12916.207325088355
aF12919.108862566924
aF12937.675372394164
aF12938.35985679704
aF12939.418641016195
aF12941.622097822772
aF12946.060659726378
aF12952.702112794399
aF12955.878329993673
aF12966.181003222799
aF12983.063041218365
aF12996.79953663768
aF12997.558078085794
aF13007.50051563547
aF13012.10940878683
aF13019.049450567585
aF13019.483240726413
aF13023.647445448227
aF13028.385062251731
aF13030.086437997214
aF13033.898436575664
aF13035.443770467144
aF13038.730523568054
aF13048.244396904427
aF13048.42812740436
aF13054.533984105256
aF13054.696526706233
aF13065.738221786249
aF13075.105944576757
aF13085.566018639609
aF13088.011764040935
aF13091.211660820394
aF13104.61464002287
aF13112.980923626012
aF13114.646899192314
aF13123.133757087862
aF13127.963237179229
aF13129.805425764944
aF13133.922991268046
aF13134.060134694055
aF13140.02404545647
aF13140.077020628316
aF13155.810860965299
aF13157.327345300444
aF13160.62361093456
aF13162.12592167185
aF13171.211519976318
aF13173.486524352898
aF13175.759364628728
aF13176.764176748136
aF13181.687498121793
aF13183.921444432479
aF13187.515954032075
aF13192.738573069804
aF13206.991032725824
aF13211.325799946802
aF13214.923399708614
aF13221.906304012726
aF13225.37079899678
aF13230.190176796263
aF13232.00284858055
aF13240.400843321602
aF13240.90289048732
aF13249.460883548583
aF13258.418187007159
aF13266.609558658552
aF13266.646641867634
aF13272.274463869107
aF13284.792659328525
aF13287.144894783258
aF13292.256528622407
aF13304.387470922962
aF13304.794682770129
aF13308.903021565742
aF13321.812346929033
aF13323.893035940046
aF13325.481477754907
aF13327.306458176958
aF13327.331567572359
aF13333.113060276937
aF13336.78643421295
aF13341.40453479817
aF13344.135052831085
aF13360.066091479966
aF13366.046587475108
aF13371.001821012398
aF13372.619571702848
aF13376.017825363597
aF13383.51715123016
aF13385.503842378906
aF13385.770133415104
aF13387.887097797431
aF13393.515680571656
aF13397.49240169844
aF13399.21772373871
aF13401.407897063413
aF13420.090702406942
aF13420.880054457992
aF13429.329715096083
aF13430.015259662348
aF13439.83231007816
aF13441.666294930637
aF13444.457347526368
aF13445.321159427876
aF13449.463725470732
aF13458.369738339621
aF13458.944625821146
aF13465.100147766072
aF13468.59921626958
aF13477.796577986974
aF13481.15989200517
aF13485.13361413827
aF13486.316183782146
aF13501.039466735285
aF13505.472004447023
aF13510.941941266214
aF13533.57360324489
aF13540.207433225456
aF13540.745696708032
aF13548.72379618472
aF13548.852222181591
aF13552.887378998033
aF13555.484220402695
aF13555.785573133402
aF13558.381117675783
aF13559.647497913287
aF13562.786940273127
aF13567.300426868427
aF13569.925894657497
aF13572.245090398486
aF13575.729530346578
aF13577.026549142867
aF13579.822229420013
aF13583.332306224947
aF13583.40740111315
aF13588.33715920625
aF13588.445164198714
aF13588.654551941892
aF13592.929549883384
aF13592.967240082044
aF13602.011745637412
aF13608.424462647714
aF13611.720973402866
aF13618.224679760498
aF13625.419787446386
aF13627.21031082787
aF13636.258368669116
aF13637.861327436465
aF13657.136202172562
aF13667.68251781997
aF13682.546893538323
aF13691.473810407084
aF13691.490772528692
aF13714.430531090238
aF13719.508154723471
aF13720.981730638217
aF13721.500343922058
aF13725.428194704851
aF13744.620994554336
aF13748.334079866616
aF13757.086236377792
aF13761.88851741451
aF13764.705659864714
aF13766.809410900043
aF13777.412036753734
aF13782.793416466662
aF13784.627841406942
aF13802.665720311617
aF13805.993896063232
aF13814.31553589126
aF13815.442535537513
aF13823.26462409541
aF13824.319303399463
aF13827.266481912064
aF13854.222651390442
aF13855.331143252286
aF13861.614919966836
aF13865.477069334283
aF13870.547725552122
aF13873.698778236418
aF13895.337586614352
aF13897.138490432642
aF13901.00262690292
aF13904.47226833341
aF13909.356940782833
aF13914.547757613864
aF13930.926046015778
aF13938.029603860336
aF13939.013324069989
aF13941.262905516218
aF13943.083305535525
aF13962.256027794912
aF13966.621049399973
aF13971.448749961408
aF13978.737044163303
aF13980.970129396997
aF13981.48067259927
aF13983.752181075612
aF13986.318372736883
aF13986.621308517351
aF13988.259706191224
aF13988.915468766176
aF13992.47130413747
aF13995.072742634833
aF13997.760557405214
aF14002.598713377496
aF14006.7832989154
aF14022.584589204846
aF14027.421098916273
aF14030.697046099229
aF14031.365277894172
aF14033.746835974289
aF14036.681943246833
aF14038.215134248758
aF14050.661184641482
aF14052.145015933102
aF14056.470958954726
aF14056.970540705306
aF14063.317533187223
aF14065.816388948275
aF14075.6723580617
aF14086.314752630064
aF14090.294705589322
aF14090.599282962115
aF14091.506255078626
aF14099.346647817847
aF14104.23863857735
aF14104.45482998776
aF14106.46579421881
aF14109.272315881417
aF14111.897215660716
aF14128.833468833789
aF14130.412968055329
aF14130.41749759447
aF14133.189656853234
aF14138.052410223783
aF14140.559942464508
aF14142.530643006718
aF14145.759271451529
aF14145.760224623049
aF14148.858703037773
aF14153.027279327182
aF14155.353163633034
aF14159.779057602738
aF14163.451206125692
aF14171.474027086539
aF14176.946222071592
aF14182.363491510965
aF14182.738818588547
aF14183.485724740456
aF14189.962378284812
aF14193.140694225998
aF14193.16784639341
aF14197.642886839136
aF14203.412495820667
aF14212.574944676848
aF14212.875763565387
aF14216.963062419933
aF14216.97141343692
aF14223.223839953907
aF14225.67460318937
aF14226.865033121912
aF14245.90393636477
aF14248.625052253616
aF14258.007312446161
aF14258.927087647182
aF14264.250647813615
aF14267.784281955392
aF14281.880481173936
aF14285.157023536742
aF14287.998931278842
aF14290.913930237328
aF14294.541008692457
aF14320.835218846205
aF14320.991009840778
aF14322.825127142529
aF14325.652535548232
aF14328.666150500805
aF14336.024739685667
aF14343.010298498193
aF14343.589764581126
aF14348.903259795408
aF14349.458901935168
aF14353.906181803965
aF14364.359324490671
aF14365.728006773017
aF14369.16987799888
aF14377.932525085529
aF14384.265165878589
aF14386.873064698666
aF14396.27206483639
aF14396.923657710428
aF14401.433716239182
aF14410.160740002864
aF14412.848778964786
aF14417.387830310237
aF14423.488411152319
aF14429.85811873926
aF14430.514979123014
aF14432.610998509825
aF14437.313417077867
aF14439.581412833588
aF14446.912023548757
aF14455.48059321579
aF14458.675936036978
aF14458.782528028554
aF14458.937234958883
aF14463.543085979243
aF14468.529316858036
aF14469.144331352009
aF14474.441965757182
aF14484.081661696959
aF14511.695825819525
aF14512.610416592173
aF14532.37017200018
aF14533.525963518536
aF14546.285443787998
aF14560.27010544832
aF14561.758464116618
aF14565.362599568516
aF14567.488360325691
aF14570.037643794822
aF14586.495500488782
aF14586.6770082802
aF14586.870436372348
aF14609.504579607814
aF14618.158514629093
aF14626.254016854864
aF14628.083408877248
aF14630.017504340854
aF14636.244168781419
aF14650.377924382788
aF14650.864132372699
aF14654.059169451457
aF14655.882199813846
aF14660.245346198913
aF14669.10613351359
aF14670.082333439008
aF14673.369207663416
aF14679.99984301621
aF14682.505827475265
aF14690.170154086767
aF14701.656204990286
aF14707.453404420885
aF14712.669502623256
aF14713.018058110394
aF14713.645222734609
aF14715.312937160938
aF14722.67475500264
aF14726.740145508791
aF14745.61868336077
aF14746.416139512574
aF14748.379086479914
aF14757.305243380859
aF14765.19264207366
aF14765.788060309644
aF14769.609414486054
aF14772.637814901016
aF14798.220013523995
aF14803.669814611598
aF14804.108487377624
aF14810.49291689187
aF14816.544434795254
aF14821.418140235983
aF14823.6248791773
aF14831.123349107827
aF14833.135921167339
aF14859.45138257021
aF14875.514723296617
aF14875.669711959465
aF14889.429288368763
aF14890.34927452188
aF14891.406586249828
aF14894.98624528209
aF14905.976907872608
aF14908.52530148936
aF14911.250947014587
aF14911.890180398656
aF14919.549652879685
aF14919.993562363848
aF14921.772226317375
aF14941.23448932061
aF14942.331397691985
aF14943.366637666582
aF14945.360551508955
aF14948.564421934101
aF14964.047745544014
aF14967.2887365873
aF14969.340664182799
aF14970.644201994382
aF14975.132491136177
aF14995.968110853888
aF15006.750387718552
aF15007.83988858064
aF15021.870671901721
aF15022.750912301075
aF15027.277862575387
aF15027.482183755408
aF15034.46756195099
aF15036.159674604432
aF15041.623700762599
aF15044.093933081122
aF15055.615590372001
aF15057.047428539607
aF15061.696170021196
aF15063.615130783997
aF15063.666022198166
aF15078.808574656545
aF15085.039740670243
aF15085.206924039736
aF15086.861748199224
aF15090.101541368405
aF15090.47622390576
aF15092.067231248338
aF15093.457523013432
aF15093.540537863371
aF15096.40584784033
aF15101.764931504904
aF15111.971219848545
aF15114.814972993525
aF15118.052799691308
aF15129.504399202338
aF15132.621200563162
aF15148.379812636109
aF15148.608529058705
aF15148.757725996093
aF15156.130126764163
aF15173.721511707636
aF15188.324202361973
aF15189.370450098459
aF15193.999134051002
aF15197.588711685605
aF15200.775738802009
aF15205.053674929339
aF15205.938029339259
aF15206.285626611401
aF15207.544996056014
aF15214.321787297797
aF15216.380839745416
aF15224.181012301346
aF15224.535257818348
aF15227.38979391639
aF15232.738873881572
aF15240.478798450948
aF15242.674600617342
aF15247.234741045384
aF15253.281628672832
aF15254.737945916686
aF15265.431563475613
aF15266.44847988213
aF15279.232114079865
aF15281.265668688078
aF15281.747828280873
aF15285.709671256529
aF15288.409415492783
aF15290.364277451263
aF15292.664042246097
aF15293.173039448795
aF15294.927819751994
aF15311.015154127625
aF15315.719687828841
aF15317.395023157576
aF15325.26660451583
aF15325.954107251326
aF15334.34583433889
aF15339.395066004403
aF15342.226172418785
aF15350.023535485801
aF15355.82814013185
aF15356.99500892564
aF15362.235310439977
aF15364.632323409065
aF15365.283580978814
aF15378.846195728698
aF15379.367575131513
aF15383.98293225018
aF15392.159121431323
aF15394.774190954786
aF15397.002319404826
aF15397.478707261416
aF15402.34466554576
aF15417.513122616498
aF15428.320948636101
aF15439.843622644745
aF15441.360789360424
aF15473.74834445296
aF15479.45005620789
aF15484.337340182457
aF15486.413130651967
aF15495.489200533468
aF15496.186582253593
aF15496.566273575503
aF15498.687666566031
aF15500.32689434614
aF15500.673573406877
aF15508.170430885628
aF15508.67613291567
aF15510.579454970755
aF15514.415553020404
aF15517.273449691413
aF15523.439213506761
aF15528.008188351545
aF15529.789559041215
aF15535.024666368914
aF15536.131785429949
aF15544.224046298932
aF15552.553276876288
aF15557.25320831837
aF15560.923416770782
aF15567.564251075419
aF15574.170123061655
aF15574.726170588934
aF15591.103333071494
aF15593.394546999516
aF15598.041372271746
aF15603.552160534127
aF15613.735235912343
aF15613.893880627298
aF15618.277413266873
aF15618.636028296361
aF15621.95006531705
aF15623.16660283317
aF15624.690306911607
aF15630.890965334645
aF15631.469225246385
aF15632.596850067364
aF15641.973525766092
aF15643.889461189125
aF15650.611797462134
aF15651.45054966894
aF15653.266907046038
aF15660.083902089822
aF15662.67156639305
aF15663.190125806908
aF15671.57198747612
aF15672.36330557031
aF15687.72183563942
aF15692.621115774118
aF15697.789162193763
aF15698.753183398472
aF15701.75177944189
aF15704.843778335995
aF15723.053306046218
aF15724.164034476338
aF15732.813026125796
aF15734.852292582304
aF15737.651604533487
aF15746.47439071856
aF15748.12225262099
aF15750.265888704915
aF15750.897186389499
aF15767.89239521544
aF15777.546615955089
aF15785.444640881342
aF15786.553429444019
aF15789.094118110612
aF15798.848550227898
aF15808.208804662854
aF15811.478016403575
aF15814.084789853403
aF15816.194199578675
aF15816.689358781068
aF15837.17768672618
aF15837.23625546268
aF15853.780633489567
aF15854.547223388785
aF15859.71474608939
aF15861.83857908996
aF15864.489644266034
aF15865.924100982373
aF15870.249333871081
aF15872.657538460116
aF15872.989881037534
aF15873.52731715153
aF15875.390439461846
aF15884.423943299833
aF15892.26721564147
aF15893.863418668207
aF15900.841688928176
aF15902.96821584931
aF15909.315759106117
aF15912.006887868945
aF15917.550185530576
aF15919.891611501474
aF15921.621469429258
aF15921.624397790647
aF15922.576385942084
aF15924.389185263817
aF15927.043987421692
aF15944.745890763023
aF15946.191600779064
aF15950.12634198444
aF15965.45733881485
aF15972.129878843194
aF15974.987966161332
aF15978.396531624294
aF15978.925683010786
aF15980.707910764168
aF15995.756136125154
aF15999.200609114827
aF16001.834031577226
aF16009.080458329476
aF16009.741377268967
aF16021.824327934046
aF16022.92605720821
aF16025.648365927274
aF16030.928068172856
aF16035.35180205016
aF16044.039587226911
aF16045.608723160169
aF16050.17941118164
aF16054.170067790259
aF16071.371024882143
aF16077.010186199972
aF16080.55922376151
aF16083.554448289333
aF16083.566710763283
aF16093.671330558715
aF16103.263428727101
aF16104.542959811602
aF16113.359592562341
aF16122.658727558366
aF16123.905081807901
aF16124.655706567248
aF16130.574280809826
aF16136.570667298029
aF16141.379263187555
aF16150.393959250292
aF16165.218736959403
aF16180.110745094455
aF16188.666034414891
aF16195.875610544637
aF16202.973578786856
aF16207.472615480787
aF16208.134648641015
aF16209.299372695057
aF16211.860125300436
aF16217.531720310713
aF16227.248210369917
aF16236.67809781259
aF16236.710506136316
aF16243.472424795918
aF16244.248943937717
aF16252.66929308806
aF16254.346404984639
aF16257.92147853072
aF16259.253628220027
aF16262.598763460932
aF16265.475471498763
aF16267.6911775529
aF16268.292437153901
aF16278.218449614757
aF16278.787827832884
aF16281.688940302458
aF16282.885961966344
aF16288.052205578317
aF16296.010194005745
aF16304.543495872224
aF16309.82126065889
aF16312.994479565137
aF16323.525625989982
aF16336.987404691694
aF16340.448909133851
aF16342.079950498115
aF16343.561900379962
aF16345.127844710867
aF16347.628982072649
aF16358.57282325312
aF16361.34993875932
aF16361.468122676246
aF16366.415207740389
aF16366.724151055258
aF16367.636446150556
aF16369.724445678774
aF16394.258522812946
aF16405.597232106607
aF16405.730700251435
aF16409.795001187358
aF16413.89929531347
aF16416.93632017998
aF16418.325128212113
aF16427.90985015542
aF16428.74711965144
aF16429.45272045783
aF16429.46684439844
aF16430.802216418568
aF16430.907426291513
aF16431.82975368833
aF16433.919800885156
aF16435.13034605924
aF16437.438765112125
aF16439.12014519649
aF16439.988511612835
aF16448.84105947683
aF16450.72231853453
aF16451.640303831668
aF16459.3831864552
aF16461.74519444878
aF16463.1708773481
aF16464.744370972872
aF16470.098583706782
aF16470.578220171854
aF16478.209400974098
aF16483.04119586998
aF16483.30047570679
aF16485.268934201402
aF16490.383166042317
aF16492.74633259196
aF16503.937017316384
aF16504.270710364595
aF16506.519784166285
aF16513.883108821527
aF16521.320029418952
aF16533.244972567587
aF16544.74869574714
aF16560.110269258148
aF16565.820223013634
aF16576.5744350075
aF16583.971281268496
aF16590.91584953759
aF16597.20315105197
aF16600.28110688825
aF16605.33241944977
aF16609.69768809885
aF16612.570081118443
aF16615.49085305289
aF16622.828667998532
aF16632.550194326068
aF16634.685896983407
aF16640.46766804134
aF16645.495247003153
aF16658.126352288924
aF16663.13436126373
aF16669.18178262088
aF16671.00519799859
aF16673.524303529146
aF16674.691070023342
aF16688.475929476524
aF16690.31467539714
aF16692.260874809363
aF16694.191169196823
aF16711.485163114277
aF16712.87780821169
aF16719.11134341414
aF16720.601311615254
aF16725.693093704187
aF16730.90578401177
aF16736.19085220629
aF16739.024532564687
aF16745.745051263326
aF16748.36725338678
aF16760.58179423294
aF16762.22784380201
aF16764.258416525427
aF16774.87739493333
aF16777.137723416632
aF16781.02402384314
aF16782.690633874077
aF16787.37550700386
aF16790.744154540513
aF16792.19262026523
aF16803.820709673884
aF16807.294345291164
aF16809.367616602765
aF16810.307011546818
aF16812.214355005828
aF16817.259790521406
aF16822.07469720479
aF16824.03634082767
aF16827.629962359697
aF16832.5238312845
aF16836.01958818086
aF16836.997828914828
aF16838.296707295667
aF16855.415529256017
aF16856.016410835196
aF16857.60839561958
aF16863.317751800874
aF16883.728347754837
aF16883.957284025826
aF16895.916547295463
aF16896.773275206797
aF16898.53887962712
aF16904.78943891801
aF16916.70716941023
aF16925.52269177133
aF16928.70396896373
aF16930.60591216617
aF16932.348428929203
aF16936.177080904534
aF16937.243160354523
aF16937.2570010492
aF16938.464673123523
aF16953.124395515224
aF16956.073254034753
aF16969.38241627877
aF16984.325683780407
aF16987.518829974655
aF16998.5475757612
aF17002.9934470491
aF17004.84206778105
aF17009.59649497534
aF17013.72802268969
aF17016.391186727597
aF17016.509045731244
aF17021.37565589031
aF17024.171629811543
aF17041.435673135056
aF17047.704317760774
aF17048.74170632026
aF17053.471012145597
aF17063.27059931034
aF17064.582493748683
aF17072.855478295784
aF17073.112107568428
aF17073.92417852958
aF17075.799163534717
aF17079.40407279903
aF17086.525114685992
aF17091.960786574346
aF17114.854345960954
aF17116.823479679482
aF17121.69673961797
aF17155.779425660072
aF17157.1482092474
aF17162.580208990148
aF17166.842797680212
aF17169.81902550698
aF17169.86388198384
aF17174.90672110955
aF17177.05222991008
aF17183.176735901976
aF17186.136573691565
aF17188.252359149246
aF17193.57050872682
aF17201.36160603476
aF17203.297640584355
aF17204.160846396633
aF17216.37845153023
aF17217.545931700737
aF17222.739297685184
aF17228.48304821218
aF17229.230831376815
aF17230.300499349763
aF17230.56635898112
aF17234.606565095924
aF17241.82733358162
aF17241.95157978319
aF17242.276545767534
aF17242.85226711204
aF17249.65371915163
aF17264.14973237384
aF17265.574154668906
aF17275.64251391541
aF17277.835036163713
aF17282.387171997958
aF17286.858563109632
aF17291.735321740864
aF17293.17179033147
aF17293.480969668068
aF17298.26711166884
aF17299.676676231607
aF17304.06077933527
aF17304.71083253582
aF17308.7623250834
aF17311.718262770766
aF17314.229993446937
aF17322.075775602294
aF17323.148851962407
aF17328.26583231201
aF17337.669388555103
aF17338.24003027499
aF17339.518551782177
aF17339.52894209159
aF17340.557558405442
aF17351.204422883904
aF17357.917315766106
aF17361.742264979963
aF17366.901403398162
aF17373.376724187958
aF17376.954610143344
aF17381.481488565
aF17386.597192953053
aF17389.756918243384
aF17391.71586092573
aF17402.750941351438
aF17412.954411731476
aF17413.32119639989
aF17413.35846013044
aF17417.73971604932
aF17420.266639949463
aF17424.0321241365
aF17425.904124143748
aF17444.51260256924
aF17450.27172512418
aF17453.105000696
aF17456.241792088284
aF17456.818967398234
aF17477.440243794288
aF17487.590756159083
aF17488.439704931578
aF17501.434528970723
aF17507.359627090977
aF17511.48397288212
aF17525.460657896318
aF17525.537790970197
aF17528.61391859358
aF17529.82563715695
aF17532.257128453086
aF17541.38989773619
aF17543.366158355962
aF17545.62530926732
aF17562.892079314057
aF17568.2917640108
aF17578.042237750105
aF17580.08540954285
aF17586.029196446252
aF17586.48436415036
aF17588.088473576787
aF17601.301527875705
aF17607.332164565465
aF17616.55349056584
aF17631.57304607785
aF17636.366736370066
aF17637.81642087204
aF17639.65116107794
aF17641.210971014694
aF17641.30282500474
aF17645.173793889404
aF17647.365915090166
aF17669.151290819922
aF17671.616585710683
aF17682.551667554664
aF17684.00082002566
aF17696.316398423474
aF17704.31759082959
aF17708.007848258032
aF17709.206708541074
aF17716.35307631741
aF17716.47296797259
aF17716.773742338464
aF17717.708698764618
aF17721.345500818865
aF17733.743962686567
aF17735.574240452723
aF17746.731870823067
aF17751.146841440433
aF17753.719439487475
aF17756.099717031266
aF17761.648882701647
aF17764.09572711909
aF17764.8260326506
aF17774.68297701626
aF17778.26361533904
aF17780.63558315229
aF17784.608777561705
aF17784.903995884844
aF17787.53688450459
aF17788.504470062515
aF17792.157888940365
aF17796.45708926682
aF17801.254844079678
aF17813.16494777385
aF17814.1056388177
aF17816.044913793932
aF17818.912873245717
aF17818.941492640435
aF17820.859002390094
aF17828.06989766626
aF17834.65763813431
aF17836.63324845769
aF17839.09646307576
aF17839.576265231102
aF17841.96182991843
aF17844.94750553839
aF17847.042001508995
aF17848.875554894446
aF17852.6448586612
aF17859.56930639944
aF17864.682764303954
aF17866.813961208514
aF17869.58469343216
aF17875.263468641042
aF17881.40596316339
aF17881.635865733268
aF17895.022347269332
aF17895.829499718886
aF17903.17889719651
aF17903.731668952598
aF17907.47830802171
aF17915.309341213357
aF17915.7391378926
aF17919.708676283946
aF17921.99448115152
aF17926.08792082564
aF17929.092863097434
aF17929.262688243132
aF17949.990894124996
aF17962.53497891532
aF17962.575463506462
aF17968.632024192284
aF17979.99953306364
aF17985.486794730667
aF17989.80467138633
aF17990.44361002107
aF17994.73762278045
aF17995.162171287906
aF18007.60470937037
aF18011.749669517154
aF18012.775699814378
aF18019.037563663715
aF18024.791801711825
aF18027.0627222281
aF18029.255962205374
aF18035.015739671304
aF18054.049800324214
aF18058.063369050393
aF18061.22656976169
aF18062.688775304792
aF18062.80353175817
aF18065.034336682253
aF18077.860326596627
aF18078.0451094647
aF18084.792905797818
aF18087.0285771798
aF18090.30760577077
aF18092.234566816787
aF18100.84983195222
aF18102.383659006045
aF18105.452516198075
aF18126.265560291584
aF18133.346546058292
aF18143.690079810054
aF18155.616985127966
aF18158.009991799616
aF18158.48358140648
aF18164.334509372507
aF18168.728583788026
aF18169.142808927092
aF18170.74962100513
aF18190.378017814906
aF18209.751429416818
aF18212.086499500267
aF18221.548936449617
aF18227.734210965376
aF18230.977541911474
aF18236.21979027023
aF18250.375054754204
aF18266.161512702452
aF18269.871538985924
aF18281.154773891878
aF18285.582234988036
aF18295.536332660227
aF18301.9420972177
aF18305.789461904544
aF18306.410033315373
aF18317.056137709227
aF18321.416512963715
aF18328.501139333872
aF18331.24004797839
aF18343.60820522701
aF18348.58748936905
aF18349.772877570223
aF18355.81034248355
aF18356.14007366298
aF18357.006196986375
aF18368.54047421368
aF18376.495810922956
aF18380.201928191786
aF18387.764846336853
aF18388.362210574007
aF18388.489338527517
aF18390.507911646
aF18398.71920588543
aF18399.079336285606
aF18399.751299395393
aF18401.55264250984
aF18402.923170006874
aF18405.62089351414
aF18407.082663549627
aF18407.26846663901
aF18413.00892620504
aF18416.345239808532
aF18416.49321511401
aF18416.799361779278
aF18417.44860205155
aF18419.68283427881
aF18422.85400905698
aF18433.88277399304
aF18441.94566889106
aF18442.567680939977
aF18473.696861773755
aF18483.791947411315
aF18483.90583961721
aF18487.32872941939
aF18499.404975899808
aF18499.560259990678
aF18501.442519844186
aF18507.07136819205
aF18507.601574454675
aF18508.04761707451
aF18510.871257581337
aF18513.19388452902
aF18515.69028549758
aF18520.294204981074
aF18528.39037455455
aF18530.336400117067
aF18533.99110316744
aF18534.762702822925
aF18541.87337541993
aF18543.4682309946
aF18545.12105872257
aF18548.273221262127
aF18549.900290643134
aF18557.53565712929
aF18563.032466374723
aF18576.225564143406
aF18580.887985380632
aF18584.224212407877
aF18585.44621053098
aF18593.690810540218
aF18594.537797601122
aF18599.0682199524
aF18609.7576030449
aF18615.894680942885
aF18617.52638019443
aF18623.119257024366
aF18624.38022326551
aF18653.316871768267
aF18653.39736301372
aF18655.38426334753
aF18658.77860688018
aF18660.409282516554
aF18660.6039680336
aF18667.159671686095
aF18668.916016857747
aF18670.00878364751
aF18671.220484294838
aF18678.651584640047
aF18686.58402149926
aF18694.342699004737
aF18696.324102092407
aF18698.4497927059
aF18708.510944279493
aF18709.623593395452
aF18714.372861835785
aF18717.399997625645
aF18724.336786071628
aF18739.83513640679
aF18740.849103592667
aF18743.326417028762
aF18743.771937748843
aF18745.597795535745
aF18755.86451600678
aF18756.72394499561
aF18761.303500980153
aF18762.539398553105
aF18766.383534212837
aF18777.155841458385
aF18782.38813975081
aF18783.918864069547
aF18788.067500773323
aF18789.84423141256
aF18791.458473016242
aF18796.59163273804
aF18798.600044788505
aF18803.872180782517
aF18806.80678478727
aF18808.352400201846
aF18809.192528640906
aF18809.519266983145
aF18809.527245217927
aF18811.058811816853
aF18814.49892768454
aF18814.94385014868
aF18816.67515803956
aF18826.241770668923
aF18830.767675747757
aF18830.959483683517
aF18834.893483205666
aF18856.170511793032
aF18856.37722006116
aF18857.20819959451
aF18858.317850327847
aF18880.587102062433
aF18890.372318174515
aF18891.412372191982
aF18897.439749266523
aF18899.297794774408
aF18900.64629530704
aF18909.75252390472
aF18913.95793017082
aF18920.381057032253
aF18920.557690822086
aF18923.235552396367
aF18924.54680264021
aF18926.880742647558
aF18928.711225629315
aF18938.285293236375
aF18939.160445664944
aF18940.253334734956
aF18950.926994964993
aF18953.40991403312
aF18960.44618216136
aF18964.459065312938
aF18964.693061572445
aF18964.700431865287
aF18965.72960916252
aF18972.442757861198
aF18976.72500813944
aF18989.274013742663
aF18991.277805655554
aF18992.641511978498
aF18999.848445009437
aF19000.47603232326
aF19004.192839299805
aF19006.28093296316
aF19018.863466167037
aF19019.81184579815
aF19031.92544755264
aF19034.494623906663
aF19039.609422396417
aF19045.220199359726
aF19046.11769393617
aF19046.876240303176
aF19048.74044078158
aF19052.06084263112
aF19056.39694871609
aF19058.933192337518
aF19068.29654418588
aF19068.592669811973
aF19083.89546787657
aF19087.878758371542
aF19095.87422843849
aF19119.987195069254
aF19126.82233885424
aF19149.328572936814
aF19153.139963707432
aF19153.68790278064
aF19154.394931827013
aF19158.622320918348
aF19160.89348867223
aF19163.229902062467
aF19175.797353437552
aF19198.559615663078
aF19201.066533385154
aF19204.87682968041
aF19213.6440187492
aF19221.20898285802
aF19223.744078081094
aF19228.07244316014
aF19235.490524030913
aF19236.898222223852
aF19239.800331305392
aF19247.02819139984
aF19255.30676513206
aF19271.723785770442
aF19274.111473153305
aF19285.868393341392
aF19289.67514058263
aF19304.38800197435
aF19307.44993986916
aF19316.87218407814
aF19328.78208965102
aF19345.40951738729
aF19347.472096696933
aF19352.870083718914
aF19355.870999238068
aF19361.54974914284
aF19368.408930341764
aF19376.060523226617
aF19377.30712722535
aF19377.908479035978
aF19378.92842832337
aF19379.29891468247
aF19384.352029686976
aF19394.85388493388
aF19405.58203912686
aF19420.56976929177
aF19422.24260858422
aF19422.593722033565
aF19428.995763141837
aF19448.374027208643
aF19450.99400094173
aF19458.323066353543
aF19465.534752403386
aF19470.380398497076
aF19476.913059734357
aF19481.86451027051
aF19488.060736601277
aF19489.290103054045
aF19490.343346852216
aF19492.812696389887
aF19499.007151241985
aF19502.60808759633
aF19515.523009301363
aF19518.44632643037
aF19529.000395582603
aF19541.920651059332
aF19542.59977074026
aF19547.067825171907
aF19551.231534067218
aF19551.72788683952
aF19566.701833210645
aF19569.916866527976
aF19573.055753999903
aF19581.775754706534
aF19586.929985734765
aF19601.17544194738
aF19602.431701927384
aF19604.83812453181
aF19607.85745931771
aF19611.05693253956
aF19615.048978264927
aF19622.370864316425
aF19622.37492442871
aF19624.237189756805
aF19636.27917554081
aF19642.64074224493
aF19646.704849392296
aF19652.257978745492
aF19653.52319532232
aF19654.297553707056
aF19659.532234219594
aF19671.272472359135
aF19684.63767801783
aF19687.366639575677
aF19688.409817840144
aF19692.38825549666
aF19697.22380699231
aF19702.24140151754
aF19704.634942758315
aF19709.701585496925
aF19709.790389403504
aF19710.013362891725
aF19713.849199803724
aF19723.13419526032
aF19727.169631850746
aF19751.41828129765
aF19753.382782025637
aF19762.75394030022
aF19766.54225112856
aF19770.41313614058
aF19771.756246911275
aF19774.895339767503
aF19774.91030371587
aF19780.284337780016
aF19789.754104893684
aF19801.017848567986
aF19805.436278928177
aF19817.911527975986
aF19822.441912683622
aF19823.573850287292
aF19823.937610834288
aF19828.94671641884
aF19834.678240126286
aF19836.824381730676
aF19838.225396908503
aF19838.410971211048
aF19846.82116019686
aF19858.913860936445
aF19872.331981116633
aF19883.975728799036
aF19885.14186207106
aF19885.7592787647
aF19895.24296945344
aF19901.166433476952
aF19903.002678908175
aF19905.95610533608
aF19906.789268221142
aF19909.17520718465
aF19911.222182872258
aF19913.163555890766
aF19914.28830181705
aF19915.927506119846
aF19922.696304493333
aF19941.23836010789
aF19950.728416740472
aF19952.307234320295
aF19953.37880059018
aF19955.587845822338
aF19962.208935023093
aF19985.754621623753
aF20002.72380663409
aF20010.406165024466
aF20012.917647723963
aF20014.34339664522
aF20018.12586136908
aF20023.269217742185
aF20030.22334739218
aF20030.96482886374
aF20045.452890633416
aF20057.23820693418
aF20057.61641328041
aF20057.920038385724
aF20059.26380815154
aF20078.443794199804
aF20079.53122109817
aF20083.470725279272
aF20085.57416497171
aF20085.881280519592
aF20086.979375985167
aF20089.77891894933
aF20090.871088332467
aF20093.9333166058
aF20113.27328938763
aF20121.946393467224
aF20125.58964691517
aF20134.846119517613
aF20135.752990246994
aF20136.817192488223
aF20138.47582391183
aF20145.681186170714
aF20148.602394502992
aF20161.329342218352
aF20168.815042621394
aF20171.49510486054
aF20173.70866948753
aF20176.338503569106
aF20176.876159331325
aF20181.61248194222
aF20186.180189199255
aF20193.177658670316
aF20225.413384244184
aF20243.845128665987
aF20244.909871751708
aF20246.66156123702
aF20251.579522271553
aF20253.603805498067
aF20257.29505428589
aF20258.12248863029
aF20265.88719178241
aF20272.6196290758
aF20274.810980310212
aF20275.826948142883
aF20276.385644836228
aF20286.784200738522
aF20294.400742766433
aF20296.1318809459
aF20297.12731393084
aF20302.62166005518
aF20305.135987634163
aF20324.389280028645
aF20328.467977759632
aF20331.485878451447
aF20335.336597571408
aF20346.183817254394
aF20350.210029865688
aF20352.43933595623
aF20354.514150892857
aF20356.175639684476
aF20357.6436089085
aF20360.194875751426
aF20367.380122150662
aF20372.0854308556
aF20383.547584248874
aF20385.666203151188
aF20390.16167291799
aF20396.05140010827
aF20396.778906263695
aF20398.721591176745
aF20399.37567652462
aF20400.685235443016
aF20404.305627507187
aF20415.74721730796
aF20417.731242549646
aF20419.05098894829
aF20419.477694326488
aF20421.351861476483
aF20425.530602449653
aF20426.80886458545
aF20427.75499137106
aF20433.9088322164
aF20437.59046490252
aF20446.924179154463
aF20449.56358399068
aF20460.530586727404
aF20462.317844280507
aF20464.548156901757
aF20468.96940435926
aF20472.325744702743
aF20474.869394184894
aF20481.87107112288
aF20482.350633905022
aF20484.069248470343
aF20492.801084459985
aF20502.572437702616
aF20504.29740165652
aF20504.470483669735
aF20505.295465441348
aF20506.23411209209
aF20508.630245285753
aF20513.820142525856
aF20513.836330907925
aF20518.559683077867
aF20518.81643515456
aF20523.076619964584
aF20528.29495915178
aF20530.67600817314
aF20534.80859805792
aF20550.397813192354
aF20554.938857336707
aF20555.85509043927
aF20556.01196036035
aF20556.897883583897
aF20559.38036125559
aF20559.811680203864
aF20565.7452473085
aF20566.43670422634
aF20570.063099567888
aF20576.658564917023
aF20585.06828374942
aF20591.72681501378
aF20593.551720139654
aF20596.48808652541
aF20599.23493511763
aF20600.908454593973
aF20604.034369304376
aF20606.860839163597
aF20618.170059272757
aF20619.271241608498
aF20622.490898053133
aF20625.524441502417
aF20627.98149356815
aF20628.445356623015
aF20630.7590197717
aF20638.679445483504
aF20658.04432162463
aF20663.134856575944
aF20665.964750164927
aF20667.134734141284
aF20673.26066403655
aF20675.322090807007
aF20691.223471962323
aF20692.818101830493
aF20697.035665151052
aF20697.904497968582
aF20700.535213828065
aF20704.508066012975
aF20712.37309842912
aF20717.441817026083
aF20723.16384893782
aF20723.649213679157
aF20731.249816137857
aF20731.677964575596
aF20745.595637857514
aF20752.876150041262
aF20763.872203181003
aF20765.44031792991
aF20770.321714543188
aF20777.83311444031
aF20778.387227675717
aF20779.176730835858
aF20781.928027309445
aF20784.63695465184
aF20784.700014784645
aF20792.276724682943
aF20795.420556185134
aF20796.697228101908
aF20797.714693207694
aF20799.4279908903
aF20808.032753500127
aF20810.939501396035
aF20817.721553567673
aF20827.355885913512
aF20835.83197586867
aF20837.62232008792
aF20847.661181158306
aF20850.195532317397
aF20851.346236829053
aF20853.201670732764
aF20854.726605586162
aF20858.254315016773
aF20867.01543916686
aF20872.83771278256
aF20873.580832781437
aF20874.423883432013
aF20877.082705465662
aF20880.87071092265
aF20881.11877159964
aF20882.60647236922
aF20884.76423359772
aF20889.826546055177
aF20890.21327100747
aF20903.561280868576
aF20905.087264146605
aF20905.73907739034
aF20922.86496374914
aF20930.653549985367
aF20934.462144701476
aF20934.882479312608
aF20938.122379918193
aF20940.581140019003
aF20941.819600549326
aF20945.85666425392
aF20946.85127429003
aF20947.546348694752
aF20949.694654489067
aF20951.790348315695
aF20952.302667008604
aF20962.257338607436
aF20969.294142709958
aF20969.58555990783
aF20974.036281015335
aF20977.453186483108
aF20982.355682295678
aF20985.824655434124
aF20990.791398210113
aF21014.629996795196
aF21016.240088731847
aF21025.94447715917
aF21028.03790117849
aF21036.169186136227
aF21037.346489148134
aF21039.655618696725
aF21048.317458380043
aF21057.768478601294
aF21066.451405007825
aF21074.732803516377
aF21079.462099846816
aF21085.929872074797
aF21092.35167803797
aF21096.951821684845
aF21101.449574569782
aF21107.16618811649
aF21110.730047070687
aF21111.92147617683
aF21119.90553549333
aF21120.356848607742
aF21124.091262540012
aF21124.279699838466
aF21129.87691607239
aF21130.709095740152
aF21133.629565013696
aF21134.43365970784
aF21140.925314090902
aF21145.725867172976
aF21148.731587157796
aF21156.907967966272
aF21160.549446364945
aF21164.370268797134
aF21167.68318749701
aF21170.638458104884
aF21176.845509487666
aF21181.894963033104
aF21185.23401647624
aF21193.7091500164
aF21194.817102435867
aF21197.14492734148
aF21204.1635993314
aF21207.513371664718
aF21208.204789581203
aF21216.497054550342
aF21218.625384438637
aF21220.535614365162
aF21224.05326488037
aF21233.083865052067
aF21233.376544704457
aF21240.802325048262
aF21247.766497631488
aF21250.937372109347
aF21252.92349785973
aF21255.388857874594
aF21256.08710745054
aF21258.452027208747
aF21261.661368889647
aF21268.72439003384
aF21273.489131328457
aF21277.310415558106
aF21281.202885793056
aF21282.292915506547
aF21287.408530889432
aF21291.941881037383
aF21292.01277249012
aF21293.447481443032
aF21299.38375963027
aF21302.643731937987
aF21303.026135818935
aF21312.7454700047
aF21315.625318995517
aF21318.595694343552
aF21323.024782129374
aF21330.120068905704
aF21336.209629858393
aF21358.823494724646
aF21359.0558655863
aF21360.91191405836
aF21371.022691785227
aF21374.71914612114
aF21375.087737105634
aF21376.841723598336
aF21379.014306012174
aF21380.057524652042
aF21394.79777393916
aF21395.23344633408
aF21404.18401559786
aF21413.312400575924
aF21417.21714011151
aF21418.987410383215
aF21422.7772791568
aF21426.742848940856
aF21427.628815591506
aF21430.648565859672
aF21433.87699589053
aF21434.889197686767
aF21439.796659889234
aF21440.214672427577
aF21441.98320750507
aF21450.46627513054
aF21454.936589301375
aF21467.44588072846
aF21482.74298737732
aF21484.272044435675
aF21485.956225995695
aF21493.42244860789
aF21493.82730743848
aF21499.75357861965
aF21500.04619554165
aF21503.646606939692
aF21504.870088550386
aF21514.615824323548
aF21520.877642155505
aF21524.997287441256
aF21534.38558624354
aF21534.915224720495
aF21539.23940887612
aF21542.38656748888
aF21546.469009757675
aF21548.00562753117
aF21550.297021479382
aF21551.06979649496
aF21562.425955444065
aF21579.709835783036
aF21581.59168333974
aF21589.434295268355
aF21594.799914317537
aF21607.38493109476
aF21613.088158797313
aF21613.26489009305
aF21615.81046805389
aF21633.850272526255
aF21640.099124758646
aF21641.958963507943
aF21642.85654329123
aF21646.921213281013
aF21647.915387559857
aF21649.453715312964
aF21656.399802880514
aF21658.82265055164
aF21661.54874469719
aF21671.00863577839
aF21676.441094831145
aF21676.90178022853
aF21679.564536162954
aF21687.601976702783
aF21689.050310241375
aF21693.60367552315
aF21693.91133235693
aF21695.95917536822
aF21700.90551222725
aF21707.65294940414
aF21707.78756667469
aF21710.25193757583
aF21710.5611300019
aF21715.327263000374
aF21716.201602330915
aF21716.897176927097
aF21724.757693518037
aF21728.45512077509
aF21731.830921140518
aF21755.807955040327
aF21756.644958955385
aF21757.38815951639
aF21764.729025395063
aF21772.950499467537
aF21776.283778268593
aF21778.776000912247
aF21781.495834318943
aF21788.253869688775
aF21788.71849250714
aF21791.55877291612
aF21796.900421269507
aF21804.455326987365
aF21810.593080118884
aF21817.142287742714
aF21823.376902508444
aF21829.085707770908
aF21829.841507628797
aF21832.60294901778
aF21842.103760810365
aF21843.82910007605
aF21854.16160774278
aF21861.888923249528
aF21869.373460220242
aF21899.060466608466
aF21905.987328846622
aF21912.25986816302
aF21912.427834712536
aF21918.855094266768
aF21923.31022482434
aF21925.104126283626
aF21929.681073736694
aF21934.40118760856
aF21939.73441994486
aF21941.51151818591
aF21941.613188909232
aF21947.057942656782
aF21947.29323401289
aF21951.82724391108
aF21956.576031536097
aF21962.53256189172
aF21975.858431102737
aF21981.60216273839
aF21992.83883785213
aF21995.68931327488
aF21998.573442785833
aF22003.830780399745
aF22017.185672803418
aF22020.536870488002
aF22026.5577053365
aF22039.06664670016
aF22039.28847199452
aF22042.560795612186
aF22043.268022399894
aF22056.13266556679
aF22056.80821654208
aF22057.371618694702
aF22061.756244544562
aF22088.54967728218
aF22091.658137086488
aF22091.77155662982
aF22097.617054765957
aF22103.010856389792
aF22113.514490391124
aF22116.78095785253
aF22118.902115924313
aF22119.228845327707
aF22122.01011471137
aF22123.21253438004
aF22124.61979754792
aF22127.12191412095
aF22145.84001572117
aF22146.44608135291
aF22147.24588129387
aF22156.93993023569
aF22160.470421654634
aF22167.761702861255
aF22168.873000621126
aF22169.09311477907
aF22179.955505236147
aF22186.78287802527
aF22196.370204755476
aF22218.26068289979
aF22221.800908323385
aF22221.89038559281
aF22229.673338928344
aF22239.130089200615
aF22244.51957199052
aF22245.56173335264
aF22247.208407248065
aF22251.55527765
aF22253.505524894448
aF22261.94825085529
aF22262.46121253735
aF22262.652695602956
aF22264.388338942965
aF22268.85957808828
aF22274.885992816657
aF22281.374266874704
aF22281.993174731673
aF22288.358584826223
aF22300.190372611098
aF22302.39441034328
aF22303.02700608599
aF22310.338146474845
aF22313.28549354835
aF22316.905079155284
aF22317.78023190621
aF22319.20402892746
aF22321.507953326527
aF22330.785138304924
aF22339.206177587883
aF22340.881247219844
aF22341.010813431323
aF22346.75574264781
aF22351.976473362745
aF22355.67125498306
aF22356.594673322532
aF22357.29384724044
aF22360.27871954799
aF22368.103215737392
aF22371.334218779404
aF22373.367188370787
aF22376.3718656558
aF22377.276086110065
aF22380.073053167336
aF22383.088814843843
aF22387.15526601493
aF22399.252664229418
aF22399.884452600767
aF22415.94062939712
aF22419.29751848221
aF22421.401484093476
aF22432.18857691309
aF22432.522626736212
aF22432.548428722857
aF22433.420237426562
aF22435.088307171987
aF22437.606019922998
aF22458.92623903621
aF22477.393993863338
aF22479.25780635471
aF22480.970117751687
aF22491.30342789743
aF22492.318802815917
aF22501.37968722603
aF22504.23736758556
aF22530.271832157316
aF22530.376894951645
aF22530.89838349323
aF22532.45655575688
aF22533.20697891564
aF22535.81483070876
aF22541.27575297932
aF22543.967201263546
aF22549.425292159332
aF22554.536845938703
aF22554.60362202514
aF22556.660969405013
aF22564.46231960315
aF22568.79553573334
aF22569.670673387405
aF22585.529961762677
aF22589.576758896827
aF22591.79455299917
aF22593.793938047686
aF22603.394257670287
aF22608.974808044673
aF22617.677557790837
aF22618.562432724273
aF22622.384540347342
aF22626.764188388006
aF22639.41127011966
aF22639.824468627037
aF22645.024268166257
aF22647.559639808176
aF22651.372163046384
aF22654.782085709652
aF22655.456580723552
aF22656.107860397227
aF22656.34863437891
aF22656.996338643465
aF22660.690382075103
aF22666.17341112192
aF22667.903444202602
aF22674.76459330811
aF22678.629387457622
aF22681.6220134518
aF22692.279538566032
aF22692.51123842469
aF22695.314454595347
aF22696.39273778528
aF22697.654720725874
aF22697.707168114594
aF22707.99170310226
aF22709.56430700238
aF22717.008549890365
aF22717.27085950647
aF22726.626113467213
aF22741.078057312483
aF22741.558021062316
aF22745.762412380045
aF22746.845672340678
aF22756.834249383264
aF22759.172426170593
aF22764.188847260873
aF22768.281904932493
aF22783.13682390969
aF22797.900563651256
aF22801.396848800436
aF22802.6984389418
aF22808.627055812736
aF22810.18197473843
aF22814.87973151671
aF22815.966674650383
aF22818.182361461448
aF22820.201867414453
aF22822.28357475109
aF22822.548445989283
aF22826.32263188857
aF22830.54673963488
aF22846.314151598734
aF22852.828601001365
aF22853.21741084797
aF22854.128007947274
aF22854.490511150303
aF22864.15870802203
aF22864.284437687267
aF22866.517148532068
aF22866.7306039977
aF22870.361551462538
aF22878.752249575984
aF22882.461585352972
aF22894.677169263206
aF22900.08778959802
aF22903.050013401324
aF22903.59003863752
aF22907.085406595605
aF22908.527209137847
aF22909.95409305568
aF22911.61608526574
aF22923.184165285988
aF22924.132433659393
aF22929.48451545189
aF22929.927918147467
aF22937.940005278233
aF22943.701066128542
aF22946.481465742647
aF22949.094093364733
aF22950.18698739795
aF22951.699124310675
aF22954.70414207691
aF22968.561222889406
aF22975.147613895315
aF22982.774683191783
aF22984.09117967798
aF22990.856567335926
aF22996.471834219446
aF22999.77828369623
aF23005.90769660674
aF23007.689649925687
aF23011.156412098044
aF23014.234905511792
aF23020.58127323539
aF23021.43169421384
aF23023.753536894255
aF23023.909458079735
aF23024.29318702727
aF23024.487449418935
aF23030.151676116155
aF23033.593718954042
aF23034.64601584221
aF23063.96019090754
aF23064.905994582605
aF23065.058719294873
aF23067.11862553046
aF23081.839549957785
aF23082.755993727867
aF23083.46830456902
aF23086.085379397904
aF23097.368266094632
aF23107.400832478823
aF23111.068505477244
aF23115.241415761644
aF23115.58422953088
aF23119.165413823022
aF23123.686414302207
aF23130.2660166862
aF23134.561320877772
aF23141.416164857892
aF23145.47644450283
aF23149.008581743274
aF23158.230988949377
aF23166.65442123238
aF23167.488043090296
aF23179.81126003338
aF23181.0067917022
aF23187.500390917576
aF23199.062981678457
aF23200.188186074403
aF23200.623827898162
aF23204.196489014805
aF23207.33779083635
aF23216.565594873045
aF23219.45276535119
aF23220.313033915718
aF23220.976168177607
aF23222.052874622208
aF23222.730749869173
aF23225.70724380103
aF23233.95698852463
aF23236.955715545922
aF23246.101214506267
aF23246.428637202665
aF23249.450616107115
aF23254.472491911107
aF23269.46061594663
aF23272.84130457068
aF23273.78998135639
aF23277.543916304927
aF23277.6208867226
aF23284.84808886517
aF23290.040605642072
aF23299.981702707923
aF23309.213510630754
aF23310.71941830742
aF23313.67830563629
aF23314.4282397335
aF23317.05409195463
aF23319.797933983642
aF23321.86996210896
aF23329.705710636033
aF23338.185740222372
aF23341.179974929124
aF23344.757858999314
aF23345.38913415014
aF23352.001337799997
aF23353.800854942285
aF23355.667295303276
aF23356.369973402143
aF23357.136520373835
aF23373.60886064943
aF23379.11013086781
aF23392.48795809385
aF23399.349033182472
aF23399.72665421988
aF23416.365470567504
aF23418.839941466227
aF23420.325132671493
aF23423.570638247078
aF23429.1813016579
aF23429.84452888369
aF23452.517104955692
aF23454.158424525154
aF23458.25825981328
aF23460.296890207366
aF23461.410631401428
aF23464.83870666005
aF23484.350582819727
aF23491.693452804357
aF23492.542299425386
aF23492.938315772022
aF23504.1822658236
aF23508.642084055235
aF23508.881722094793
aF23515.59454489128
aF23522.026255618082
aF23527.434115134703
aF23532.586279256673
aF23533.675923678784
aF23533.981081594222
aF23547.282195914337
aF23549.245927031086
aF23561.35144104884
aF23565.636762672315
aF23571.221999542377
aF23571.2759310323
aF23572.022648668917
aF23575.122714512763
aF23580.490862776765
aF23580.98221119114
aF23590.468959776885
aF23592.15130676752
aF23592.27616112254
aF23594.895999820834
aF23601.343847008615
aF23601.93508749536
aF23603.127000340923
aF23604.99274810301
aF23607.356761384457
aF23609.27365529679
aF23609.633600223395
aF23611.26569081781
aF23615.99098129785
aF23629.855867638264
aF23630.98462471736
aF23631.110573556787
aF23632.789175047103
aF23635.54757574913
aF23649.963775957844
aF23652.609325048372
aF23653.006113414787
aF23653.233722634795
aF23658.152332027774
aF23659.6368666275
aF23660.186721172526
aF23660.447173013752
aF23661.415859438606
aF23664.507167436772
aF23673.70618283355
aF23675.675614229658
aF23683.245755431763
aF23707.887465057327
aF23709.302737657385
aF23712.016087566826
aF23716.684280397298
aF23716.851699882463
aF23720.049540631022
aF23725.818219121174
aF23728.024049042084
aF23743.899436325944
aF23759.223525755766
aF23765.670020798378
aF23767.913227670655
aF23768.846227685164
aF23777.88845929145
aF23782.034643389045
aF23786.405317179662
aF23797.343541511826
aF23798.42443381175
aF23806.44086357274
aF23810.51264890452
aF23813.621560656953
aF23821.038192894455
aF23822.699521733677
aF23823.079420175523
aF23823.80079810933
aF23841.35666667213
aF23850.98959357461
aF23880.703397698908
aF23880.99845174447
aF23884.72490857517
aF23885.05703778854
aF23892.36282578309
aF23893.117243475735
aF23895.080231114625
aF23907.077643201566
aF23907.368353076447
aF23915.606660545585
aF23916.218772210585
aF23923.614188746855
aF23928.53978986747
aF23934.022733061684
aF23945.683749197964
aF23947.170899845514
aF23951.515836622555
aF23958.845365459845
aF23962.442372013535
aF23965.08287227617
aF23966.91138059251
aF23979.258217967345
aF23993.96314404018
aF23994.534172021264
aF23997.38050645932
aF23998.06840125169
aF23999.020006801915
aF24001.793532514122
aF24015.250894741264
aF24017.59595404948
aF24034.984215560304
aF24037.38291716947
aF24039.699205247576
aF24040.605698089024
aF24041.907310659197
aF24047.014525575218
aF24048.151546356625
aF24050.74633200509
aF24053.85389455584
aF24057.556904633246
aF24061.371970251817
aF24061.442129386865
aF24063.57977571589
aF24066.676984181573
aF24067.370692247212
aF24067.838590580133
aF24074.25437747799
aF24077.130042589713
aF24084.476483668015
aF24086.83693940859
aF24088.693538779644
aF24093.474266991398
aF24107.198486955414
aF24107.912035382567
aF24116.85856955554
aF24122.847790949865
aF24129.095930672393
aF24131.506631795528
aF24136.48337958877
aF24143.557979151767
aF24146.842437704294
aF24147.52958029373
aF24159.721919956883
aF24165.687710830425
aF24166.450470498436
aF24190.722172949194
aF24190.799983285957
aF24195.912033980698
aF24196.48160635906
aF24202.59006435285
aF24208.792658223225
aF24212.6848056459
aF24222.01916675944
aF24222.192027134428
aF24228.401984081833
aF24231.483278975516
aF24232.8148727581
aF24233.008717742014
aF24234.687653580382
aF24234.719804595865
aF24239.666214966728
aF24245.692365110095
aF24246.2096101713
aF24251.876747821363
aF24253.63323873388
aF24253.74190528119
aF24254.4299479743
aF24259.106166821024
aF24266.97553523531
aF24285.824400737958
aF24288.624184104607
aF24290.177066289107
aF24294.777456915006
aF24296.660656508393
aF24300.46391435269
aF24322.299147426173
aF24325.22705774688
aF24326.64907202277
aF24338.327868979628
aF24339.644872184675
aF24342.47661541224
aF24346.80722926841
aF24358.999576451497
aF24360.5128588498
aF24379.96702996759
aF24381.936666410962
aF24400.320707010153
aF24406.456424442466
aF24406.637291125826
aF24422.446944047566
aF24426.803470798426
aF24432.517920760136
aF24433.717139877223
aF24435.040410006044
aF24439.114373359746
aF24443.667705059634
aF24447.345811387575
aF24453.295124163385
aF24454.249444705292
aF24459.73376326179
aF24462.765304016495
aF24473.152395579113
aF24473.588026340887
aF24479.68008749598
aF24480.941374326703
aF24482.4964862509
aF24486.220636637165
aF24511.714903341206
aF24528.331072601286
aF24533.06666551483
aF24539.890125789007
aF24545.94929193048
aF24552.098560053553
aF24552.72125507525
aF24553.27438658146
aF24553.696540916495
aF24554.360855904815
aF24574.957901728332
aF24584.237395577973
aF24587.22339200982
aF24607.395948952744
aF24608.83905952205
aF24612.641598562946
aF24613.41045564187
aF24616.091022708384
aF24618.690179064735
aF24620.815042626735
aF24630.72805871963
aF24644.871803501017
aF24659.06818847841
aF24672.655227907177
aF24673.53320742191
aF24680.96184525444
aF24681.064113784603
aF24684.571076064745
aF24686.48718429524
aF24690.099018383888
aF24691.767642783187
aF24696.877488822847
aF24698.203469413565
aF24698.850558092996
aF24702.388665875584
aF24710.764965738166
aF24717.850310237514
aF24725.109859359167
aF24726.424070576148
aF24731.065584248263
aF24731.44149035445
aF24732.726481587735
aF24733.476374920454
aF24736.06110366876
aF24736.732974148053
aF24746.355810701793
aF24746.641815311214
aF24749.04412680932
aF24750.382177275304
aF24765.985007002037
aF24770.48226914175
aF24770.744650963235
aF24771.8453812132
aF24776.301094258914
aF24784.49620145695
aF24791.00288074491
aF24791.87797885049
aF24800.288969971178
aF24808.40093743841
aF24814.28929813221
aF24823.976073259746
aF24826.541473152283
aF24829.36313557632
aF24843.938771948153
aF24845.20546386811
aF24852.73489728766
aF24853.844449779623
aF24855.104654622628
aF24856.418467508232
aF24863.694878415787
aF24867.582461843424
aF24873.973327262862
aF24888.8674048215
aF24895.758035721443
aF24896.172363046957
aF24913.75969355568
aF24914.42056259921
aF24918.1038594196
aF24920.29194305417
aF24925.547600890226
aF24931.362641171836
aF24937.525871380585
aF24938.05088510179
aF24938.625166640613
aF24940.26876761165
aF24948.412730680902
aF24948.942395865124
aF24957.679381112936
aF24962.50782045492
aF24965.824385850097
aF24971.29511909303
aF24972.983282906443
aF24977.03316526889
aF24993.047172707917
aF25002.953933655037
aF25013.373123072266
aF25017.235797431018
aF25019.20097894652
aF25025.445854461548
aF25029.02005572305
aF25034.88145902056
aF25040.873386639025
aF25044.557175943566
aF25047.40746538983
aF25049.06821178552
aF25050.824656068864
aF25056.568476744855
aF25057.659111022786
aF25059.98099039318
aF25060.44306645881
aF25062.713398258456
aF25066.518162042
aF25074.84172671191
aF25091.189808624935
aF25096.60565831595
aF25110.192053569124
aF25136.341821986298
aF25137.04059628456
aF25144.298595322707
aF25145.793086130026
aF25150.758863543324
aF25156.384926617757
aF25167.38102940867
aF25168.310046435025
aF25178.105090138448
aF25188.46626508738
aF25195.359469564923
aF25208.07592877549
aF25210.485163487636
aF25213.849148356345
aF25216.99331425616
aF25224.680163593144
aF25229.08222217699
aF25237.696966744825
aF25242.68894913769
aF25252.55104323858
aF25262.58263991278
aF25264.005294472034
aF25269.301639719408
aF25275.18792623832
aF25285.527505158683
aF25302.688761552767
aF25305.945732221197
aF25311.32327985175
aF25313.250035874193
aF25320.320460613715
aF25325.551090844354
aF25339.32514720624
aF25339.40347032521
aF25340.123388459666
aF25345.63949006993
aF25352.34128369802
aF25361.770412360547
aF25365.574249012076
aF25366.30144407253
aF25371.863864060622
aF25390.923101823075
aF25393.101160500926
aF25397.10843899621
aF25411.510744022395
aF25419.483237551518
aF25421.045819408966
aF25422.58964448775
aF25426.60300270077
aF25429.560173156104
aF25431.600008485468
aF25439.05279127993
aF25451.01678059117
aF25457.153147703084
aF25466.508864766547
aF25479.724165940228
aF25487.85715471834
aF25493.23061762502
aF25495.104499235043
aF25505.623754926557
aF25525.233600484647
aF25564.56277701462
aF25568.76040230959
aF25570.811469425797
aF25575.326979091493
aF25583.085728095244
aF25583.600285525343
aF25588.683520000075
aF25590.17745699001
aF25590.385993016997
aF25591.231432320372
aF25594.672673992187
aF25604.080277083158
aF25611.396078833386
aF25613.261826361937
aF25620.602380075423
aF25623.651377333055
aF25624.8796561962
aF25626.18886731124
aF25626.689126374436
aF25633.71116560051
aF25635.947259845478
aF25636.25439963687
aF25652.51107179773
aF25660.983858449505
aF25669.059625004487
aF25669.186579788828
aF25669.98076310912
aF25681.837627072564
aF25697.32267838374
aF25718.166437464704
aF25721.187769268232
aF25739.496464178723
aF25741.76938577952
aF25750.12709334301
aF25752.695129532163
aF25754.54900111238
aF25756.3724047017
aF25758.453571964248
aF25762.28033663461
aF25765.076090913462
aF25769.75384757969
aF25788.74480695902
aF25797.82316059569
aF25798.74160896281
aF25810.677222525417
aF25812.83362665334
aF25813.378363609412
aF25835.940319974718
aF25837.127959377325
aF25850.81850069824
aF25851.009461360612
aF25856.62193652762
aF25863.482642030824
aF25871.107383602335
aF25871.891198020556
aF25879.538250010617
aF25893.264189796835
aF25893.551903030624
aF25897.69715147641
aF25898.535585956903
aF25902.96475486528
aF25907.31715325545
aF25910.528200763143
aF25916.093722908703
aF25916.676841520308
aF25918.092039199742
aF25919.78554911882
aF25920.90483166856
aF25922.987469367585
aF25937.59887692782
aF25939.814186805605
aF25954.7545936561
aF25962.405147288846
aF25966.78153134977
aF25974.263726870086
aF25983.834502320344
aF25991.871503816063
aF26012.343356811125
aF26021.717320921045
aF26039.8126336775
aF26046.158406230606
aF26053.284419273983
aF26056.041911961554
aF26057.34798772037
aF26066.418385322304
aF26075.86129940177
aF26077.264666039282
aF26080.395121452188
aF26082.110742730925
aF26084.828087580714
aF26087.02363957046
aF26087.129732216916
aF26092.706208233863
aF26094.383437436732
aF26098.595215116864
aF26108.816721959494
aF26112.350882251383
aF26115.766058053465
aF26126.642461425272
aF26140.384929586296
aF26147.948565456954
aF26149.258703039257
aF26159.567157718397
aF26160.509461790138
aF26165.549863379216
aF26168.255885431023
aF26173.27963333686
aF26186.613260087717
aF26189.663578058662
aF26191.932059877814
aF26195.295690576524
aF26196.51506777383
aF26199.026683942207
aF26201.265521521018
aF26206.386878356494
aF26207.935083238764
aF26209.45555726575
aF26210.998173980515
aF26221.358159645177
aF26226.72724780481
aF26228.8681547386
aF26233.834535407546
aF26241.024886632884
aF26241.734990535988
aF26242.37548282268
aF26251.755902673875
aF26255.146371909785
aF26257.87910737765
aF26262.889082866102
aF26265.200650458515
aF26279.50906927755
aF26287.609943156072
aF26289.332059025648
aF26290.61327989104
aF26293.557218894854
aF26298.061926150986
aF26305.468596099345
aF26312.465601903707
aF26317.5939392274
aF26322.162437676565
aF26322.48351960088
aF26330.589889500287
aF26334.021408016684
aF26347.513451294803
aF26349.520710580833
aF26390.383574643674
aF26402.817367120886
aF26404.29706953691
aF26412.234012827146
aF26413.127211678813
aF26415.352897010023
aF26423.85539853262
aF26424.168095319947
aF26424.512545234073
aF26426.489497234303
aF26438.92243899361
aF26443.23472161274
aF26453.574745348502
aF26471.685376017642
aF26479.892347954166
aF26480.414190819254
aF26482.198766077927
aF26495.307053982324
aF26496.09524113759
aF26497.946180521965
aF26506.86951619509
aF26512.008035113067
aF26512.85106424961
aF26514.787769001563
aF26518.797313420648
aF26526.90231194432
aF26539.830635669823
aF26542.00846982688
aF26545.79441395818
aF26553.658330448994
aF26554.12488932586
aF26560.891027353486
aF26568.78827728968
aF26573.27542609637
aF26584.829450729747
aF26589.091539185734
aF26601.17679849238
aF26601.42192491918
aF26603.552742527816
aF26624.629808452904
aF26625.67098798664
aF26630.983608069495
aF26639.55668221952
aF26641.966524753596
aF26648.58254383465
aF26650.625940882222
aF26653.84043765616
aF26655.177900711587
aF26657.16973989088
aF26662.436093775337
aF26665.318416272385
aF26669.418512478787
aF26676.329400305516
aF26678.16129987223
aF26700.136645552513
aF26702.08754175059
aF26702.75680314736
aF26703.865143792307
aF26707.49011938107
aF26710.731309487364
aF26711.818002335876
aF26712.18013271183
aF26727.61377747162
aF26734.964332853608
aF26742.91960391773
aF26746.603398664294
aF26751.87718092997
aF26756.596851368442
aF26762.115550122297
aF26773.27172365426
aF26777.87076693459
aF26779.096662045078
aF26786.040141152618
aF26786.657211375365
aF26791.503889102667
aF26797.543299716846
aF26802.69483386689
aF26802.84699756584
aF26803.439884129628
aF26805.78268261857
aF26811.26745990694
aF26813.791549829144
aF26819.215722372577
aF26821.527906134343
aF26821.569714252328
aF26825.229496573167
aF26838.295401092037
aF26838.37863108602
aF26857.146781112926
aF26857.172511686527
aF26857.192456908677
aF26862.389604235184
aF26862.997247110583
aF26864.710069662156
aF26867.41113507082
aF26870.42548424411
aF26876.858919204755
aF26877.203887054846
aF26879.3325654738
aF26879.556611945063
aF26879.782956074003
aF26893.137280559844
aF26898.217794538552
aF26907.426810235167
aF26910.213104564653
aF26910.441792001464
aF26912.355020145027
aF26912.940001463216
aF26918.255474209767
aF26921.497495489155
aF26924.40696735182
aF26925.006968213893
aF26927.98873996125
aF26947.249669509725
aF26950.38156005401
aF26956.39230621088
aF26966.639289400297
aF26974.071830381698
aF26975.713158581806
aF26985.260346762996
aF26998.483908759325
aF27002.59895847466
aF27006.34885191313
aF27010.17236502369
aF27010.38795704671
aF27010.82590038438
aF27015.978105253682
aF27019.47625219817
aF27042.96852196045
aF27051.661780125334
aF27053.686986592842
aF27056.7627569922
aF27058.12988961777
aF27063.40453612678
aF27064.00384749592
aF27071.94865375996
aF27072.019145087204
aF27072.5051793325
aF27078.92674480008
aF27079.108503800282
aF27085.911539230838
aF27090.057043068933
aF27091.56142605654
aF27091.873717589817
aF27093.31144259102
aF27096.37694723712
aF27098.64293875524
aF27098.695604632034
aF27105.568176646488
aF27106.62581315938
aF27108.31066278179
aF27113.146707725547
aF27114.82660232279
aF27118.97908579316
aF27119.412064555898
aF27126.770989040022
aF27130.284229163775
aF27134.885349748813
aF27142.567139964256
aF27148.278734609175
aF27150.639596927387
aF27153.558701609512
aF27156.521433923586
aF27157.25075730976
aF27159.617802394714
aF27167.915161441208
aF27171.64285155424
aF27178.977542590925
aF27180.65208041895
aF27180.864550259575
aF27210.834186901662
aF27217.40375009615
aF27230.4430718494
aF27233.151527267808
aF27240.29553255162
aF27244.270823017632
aF27244.76862785672
aF27256.381734214465
aF27258.27549972123
aF27265.09627023008
aF27268.188347474028
aF27289.09120286957
aF27294.305951903516
aF27303.571051029983
aF27307.085437521804
aF27312.419330245324
aF27312.865229847066
aF27320.07453044646
aF27320.368742049475
aF27320.841982324993
aF27328.191683867215
aF27333.85814843967
aF27335.486012561705
aF27341.78550318453
aF27342.461540786724
aF27344.65863221801
aF27346.089740261526
aF27346.56766148242
aF27349.294096267175
aF27350.537681616457
aF27351.336462710322
aF27353.279013550804
aF27354.93218638842
aF27364.378727318173
aF27369.438834215624
aF27372.49175968917
aF27388.985140339606
aF27399.84409135432
aF27402.76908916381
aF27403.720813686647
aF27404.325746893373
aF27409.256295188447
aF27421.04011712578
aF27433.152108543145
aF27449.897368167618
aF27450.597095773694
aF27451.3749363917
aF27457.934150861303
aF27466.1559311809
aF27466.64569622519
aF27473.259254491088
aF27477.127196423964
aF27479.46456343537
aF27480.816205782572
aF27483.473669872856
aF27485.600214495964
aF27492.081923220114
aF27492.698764433833
aF27494.7053088958
aF27494.793658114162
aF27499.181501952713
aF27501.457349018354
aF27506.102868360802
aF27507.20733266398
aF27514.42573172675
aF27525.948228029767
aF27532.165423984374
aF27532.505696189677
aF27534.79776489727
aF27535.448221069768
aF27536.747029951315
aF27554.848044186525
aF27559.007028159875
aF27561.102053647985
aF27563.912827400458
aF27566.001654348434
aF27566.435261464805
aF27567.94338311616
aF27568.353336296415
aF27574.26676038976
aF27577.27567092199
aF27586.263717453658
aF27589.086353976618
aF27592.458711870877
aF27596.042881338242
aF27599.265004747922
aF27605.65657114677
aF27605.99877602122
aF27606.658401676228
aF27612.969337148417
aF27615.882291168757
aF27617.427101355268
aF27622.3897219417
aF27630.572994206206
aF27634.256529929633
aF27640.57098651243
aF27642.33736525989
aF27653.3945841766
aF27662.910530660545
aF27667.237619849795
aF27668.25229643127
aF27672.543429489186
aF27675.87138304134
aF27680.183457192186
aF27682.924862421245
aF27686.405692685512
aF27699.29479111342
aF27702.476337933876
aF27703.128235848413
aF27716.702667269812
aF27718.121900958544
aF27724.940296911
aF27728.437377228765
aF27729.200805875895
aF27747.986885547394
aF27760.882241267045
aF27761.182556010146
aF27764.270103395764
aF27764.546208277134
aF27768.394729120526
aF27787.545493978272
aF27792.602017002722
aF27796.264429968433
aF27802.347795227557
aF27804.5248360878
aF27812.41520508944
aF27813.97645723799
aF27823.44840723789
aF27825.13188350416
aF27826.26926137006
aF27828.79618505666
aF27832.74878265301
aF27838.129522254432
aF27843.210091027137
aF27849.21752414901
aF27849.237344599973
aF27849.587196531786
aF27853.142898123206
aF27857.342218268994
aF27857.689624550563
aF27862.969934862744
aF27863.655260140928
aF27868.111668229292
aF27888.833777144195
aF27892.51498348642
aF27900.456123404256
aF27900.517261667166
aF27904.66938464601
aF27905.9275767203
aF27906.80564277093
aF27908.74479412747
aF27911.56948412057
aF27915.74988037697
aF27922.555841632027
aF27926.10081803352
aF27930.91160999788
aF27932.15601090839
aF27935.736355365927
aF27936.321873024503
aF27941.64507420038
aF27950.49946871599
aF27952.637612979142
aF27957.996542093013
aF27962.990038809316
aF27968.814834840505
aF27978.747493232066
aF27979.28688568955
aF27981.646168312192
aF28006.103300626684
aF28008.399081937474
aF28021.381240998715
aF28022.02340389774
aF28030.15045991275
aF28033.623091233836
aF28041.356456548343
aF28044.958365470076
aF28046.170773368904
aF28049.207604132942
aF28064.161429382217
aF28072.817171798215
aF28075.54617435004
aF28075.99559901927
aF28085.58984329308
aF28090.076437504224
aF28099.129050464533
aF28100.613119475533
aF28102.29380258936
aF28106.31318796489
aF28111.801118136627
aF28118.711820836525
aF28120.109471805416
aF28121.680735955746
aF28125.51379464005
aF28132.959552391603
aF28137.658778169087
aF28138.204852453306
aF28145.123676316867
aF28146.94695885139
aF28147.947087198503
aF28160.0080986385
aF28174.082361913504
aF28188.938876023713
aF28189.43715763027
aF28189.43771258348
aF28194.982397059972
aF28195.43110036492
aF28200.84178359813
aF28200.9895181509
aF28203.408534182163
aF28204.68492594881
aF28209.078888258136
aF28210.966721330344
aF28215.075403195464
aF28215.52010536351
aF28220.939081524924
aF28221.328746957995
aF28221.860532873237
aF28223.24458200798
aF28233.182600475342
aF28238.756765576647
aF28243.140279195282
aF28244.86361177618
aF28245.491333178386
aF28248.238364740362
aF28252.112354727535
aF28254.620618211164
aF28255.865737680684
aF28260.25565473504
aF28264.52594652424
aF28269.81402889447
aF28277.54926574005
aF28283.79884181013
aF28286.11268415087
aF28288.775382441014
aF28291.506483979578
aF28297.19627972636
aF28298.442158800306
aF28301.276203225414
aF28301.394032637836
aF28302.863845137403
aF28304.58834870431
aF28309.563808471477
aF28311.285651685394
aF28319.760210197695
aF28333.010673935663
aF28339.046014919724
aF28343.444313594584
aF28348.74574977568
aF28361.929228624882
aF28361.987527157173
aF28370.239073036217
aF28385.83146572384
aF28391.768340903513
aF28396.002092743798
aF28398.12998298922
aF28399.74047924875
aF28400.09780373019
aF28405.121331798364
aF28407.101010288
aF28408.564441113995
aF28410.023562645958
aF28416.298743519463
aF28419.944438754257
aF28420.760581462444
aF28423.2160396269
aF28438.481001075834
aF28449.790761425666
aF28452.702310721834
aF28457.727081400255
aF28459.030835527177
aF28468.922805655096
aF28470.18006357024
aF28485.230673792412
aF28494.51615737671
aF28502.061347741932
aF28502.136362321624
aF28509.309036898427
aF28513.02446299701
aF28518.66831219582
aF28520.21396609646
aF28528.499145781374
aF28533.524447721156
aF28541.912566057286
aF28542.089608680264
aF28547.20149182592
aF28550.248395512852
aF28568.143935232194
aF28571.965831111847
aF28572.298793513513
aF28572.41691330898
aF28573.680374546242
aF28589.489248751688
aF28590.989187951007
aF28592.670448058358
aF28609.195267360614
aF28611.487852908416
aF28612.134372113425
aF28615.95154163094
aF28618.30883317425
aF28618.469081008858
aF28623.456853448017
aF28624.404245607646
aF28628.139999131086
aF28629.844521287105
aF28630.51742457295
aF28634.549439877115
aF28640.161715625985
aF28650.129825731834
aF28653.4589789929
aF28654.76646131732
aF28655.835632090926
aF28658.240400613966
aF28658.748024614408
aF28661.253517046305
aF28667.98865781345
aF28675.816541476757
aF28676.835545537906
aF28677.300429421422
aF28696.41464181415
aF28706.073623568573
aF28709.665995212243
aF28711.225133796906
aF28711.451042214438
aF28718.638858346432
aF28722.29531308444
aF28725.773780704272
aF28727.625150614902
aF28729.15815353509
aF28739.037182812146
aF28741.653610615256
aF28755.047637051128
aF28758.76705367583
aF28766.2777104431
aF28770.150458552347
aF28772.612584383613
aF28778.63787339898
aF28793.90201738932
aF28797.825624190766
aF28805.976804529746
aF28806.494599938935
aF28811.624296048496
aF28817.99393289774
aF28839.292896235456
aF28842.9872074218
aF28850.77183317563
aF28853.678042516847
aF28859.64166228369
aF28860.662338805636
aF28864.513208263015
aF28878.860944496195
aF28881.140651679794
aF28883.205113165186
aF28883.904475547228
aF28888.38102260027
aF28892.00248859322
aF28893.570165359746
aF28893.8148895244
aF28897.81220691724
aF28899.524999729972
aF28902.000219504476
aF28912.142705586317
aF28913.067973313726
aF28920.018251094203
aF28930.408511885067
aF28930.478959306132
aF28931.301783850573
aF28938.846366199283
aF28939.630873697963
aF28968.64349785361
aF28972.719260230515
aF28973.419331836067
aF28975.12926584355
aF28982.302397826217
aF28991.223224867656
aF28995.202478659226
aF29001.101778051645
aF29003.400839675964
aF29007.20628535299
aF29017.009433582254
aF29025.366423704378
aF29027.599120409017
aF29038.179056225697
aF29038.708183500108
aF29039.518938116107
aF29042.987083011856
aF29053.967309178388
aF29054.684812441224
aF29060.988474858368
aF29068.36491205517
aF29076.8068794271
aF29086.307825484597
aF29086.666231341384
aF29098.666813880085
aF29099.017962650825
aF29101.189480551246
aF29102.5353424385
aF29103.27515983923
aF29109.318375333794
aF29112.76365665303
aF29116.198866316718
aF29118.438006762666
aF29123.03803465893
aF29130.460959604858
aF29130.499953007275
aF29131.611040167507
aF29133.62423087592
aF29141.921181145586
aF29145.501369966198
aF29148.160339744805
aF29148.251789061924
aF29152.499932616905
aF29155.63384636888
aF29159.12905354606
aF29166.64518678396
aF29170.52291263471
aF29170.673491571473
aF29177.04237252397
aF29177.642114601666
aF29180.842383915722
aF29181.782590309445
aF29185.199757761817
aF29186.877887895436
aF29204.806604601454
aF29212.062302026116
aF29213.26944741203
aF29231.68256303058
aF29239.350315876218
aF29239.814392274453
aF29241.567335436746
aF29242.915403609088
aF29245.9171479979
aF29252.741131433166
aF29253.194584863817
aF29254.33722825718
aF29264.021842419315
aF29268.121213388054
aF29273.314895726682
aF29278.659064535488
aF29278.727766507203
aF29296.63181654186
aF29297.254712485475
aF29317.892992830148
aF29320.902028737502
aF29323.48969795546
aF29326.1015400215
aF29327.457622765593
aF29331.837887996844
aF29341.512704175446
aF29358.23110649643
aF29359.324227363544
aF29366.64774989982
aF29368.331488758336
aF29368.47483347988
aF29375.455704136144
aF29383.411341420604
aF29388.455616266692
aF29389.038865378094
aF29393.497025196957
aF29412.14165246704
aF29413.35215328978
aF29418.443043677933
aF29419.821993545465
aF29426.036968244178
aF29426.395087065874
aF29436.385901468777
aF29437.480468561673
aF29458.709896234668
aF29467.711770000795
aF29468.165536884913
aF29470.40198355661
aF29475.55349030276
aF29476.82835403622
aF29478.044734549407
aF29486.995338089713
aF29487.893499139464
aF29488.858930448205
aF29488.889630295696
aF29491.199644800647
aF29502.524510478786
aF29519.2316069196
aF29521.77492692196
aF29529.083178470835
aF29535.666666949724
aF29536.100613102943
aF29549.187041645542
aF29551.36822054191
aF29551.372446243626
aF29552.251773191478
aF29557.224409224567
aF29562.21271120343
aF29566.727178890982
aF29569.350653638132
aF29578.73280219344
aF29587.552381925398
aF29592.969635517853
aF29598.03978620248
aF29598.969539433365
aF29607.519728012452
aF29607.67305459619
aF29608.850302024835
aF29610.789353387092
aF29612.63034204666
aF29614.081679206472
aF29614.68027889489
aF29619.851325268195
aF29620.433850170935
aF29621.866125881814
aF29622.661899728577
aF29628.669078434315
aF29629.483546065403
aF29636.261132753356
aF29636.426319374368
aF29646.01136598906
aF29648.604959722383
aF29651.5687488472
aF29652.22465131397
aF29653.213306193447
aF29656.857312554213
aF29660.492836659
aF29660.719930741765
aF29669.359993923506
aF29670.240802907017
aF29674.058668436068
aF29679.26824241067
aF29689.51187381104
aF29689.94676062281
aF29702.237948102647
aF29703.000436906044
aF29708.29389448767
aF29709.93604003701
aF29711.57717577728
aF29713.933391250488
aF29716.6127725229
aF29719.43693766346
aF29722.63429263125
aF29723.120705153604
aF29724.11456798748
aF29736.695729518924
aF29737.671246431375
aF29738.31801252281
aF29739.10799546284
aF29742.63893097373
aF29747.339515295356
aF29768.72932369882
aF29771.410085706648
aF29771.85841662259
aF29783.38327335521
aF29791.972497743503
aF29795.598779384185
aF29797.62502059735
aF29798.40746086838
aF29809.73055031686
aF29811.646234107582
aF29828.631505363006
aF29832.1674280101
aF29839.5175653733
aF29848.387822738245
aF29849.969080740888
aF29850.877732039313
aF29861.57926777754
aF29867.49504127126
aF29871.128771829157
aF29879.87333917497
aF29880.48039550676
aF29885.39969374908
aF29888.27293223898
aF29896.10952388213
aF29896.5761352255
aF29898.104137080085
aF29905.24162216841
aF29905.559271077243
aF29907.708278535512
aF29909.000233235427
aF29913.011207671632
aF29918.00647787045
aF29918.598670778145
aF29919.20109837728
aF29919.83487186313
aF29922.19515028981
aF29942.149532254298
aF29943.224042161823
aF29954.8934010152
aF29955.409234973155
aF29955.62530905832
aF29956.603351260565
aF29974.161746418635
aF29976.72367924166
aF29979.83724580914
aF29992.82698667516
aF29992.939692426942
aF29994.351179268506
aF30017.706504486232
aF30025.81152284038
aF30031.98061695414
aF30038.69964894052
aF30043.422059198147
aF30049.520766498692
aF30054.25129742494
aF30060.607686758205
aF30061.33751276397
aF30063.68940278595
aF30065.208705103658
aF30070.374530425044
aF30078.139775627747
aF30082.442150569048
aF30093.310393075553
aF30093.970876539723
aF30094.383845300126
aF30095.674652310805
aF30100.66731592306
aF30102.28462972568
aF30113.797464518164
aF30117.221137657518
aF30120.079092182725
aF30121.802036216573
aF30123.861390670612
aF30126.30159451667
aF30133.390372300644
aF30134.31622284692
aF30134.629433936236
aF30141.48611060041
aF30146.00874643796
aF30146.726537085844
aF30149.263772610328
aF30154.740806091788
aF30157.609602645545
aF30158.173038071935
aF30164.935812506625
aF30167.9048098822
aF30169.580499443524
aF30172.36597428043
aF30172.37133201344
aF30177.222682223743
aF30182.9685450228
aF30183.53760645237
aF30190.543526460384
aF30192.506823664327
aF30200.97222050787
aF30206.064843272947
aF30206.6154466387
aF30206.891827932446
aF30215.560961133106
aF30219.8685766364
aF30229.04015322971
aF30230.082530733696
aF30231.502752327044
aF30236.568252509045
aF30236.864726571053
aF30238.621383099955
aF30238.639609082136
aF30238.67400274373
aF30246.295537705424
aF30249.620428830676
aF30253.50833338092
aF30253.872447197464
aF30256.030199549434
aF30261.72883382956
aF30265.634671348336
aF30273.71928370686
aF30274.452353572375
aF30286.676199844547
aF30294.195649938072
aF30294.89401590228
aF30301.18488131845
aF30302.14663936916
aF30302.22070161303
aF30311.195760066497
aF30316.733559667075
aF30316.94372299595
aF30323.28717804486
aF30325.588174959445
aF30331.450626820293
aF30337.189960416155
aF30339.27365911707
aF30342.881441726895
aF30346.27526592883
aF30351.5481909037
aF30353.12886287083
aF30356.274426540942
aF30358.641820107943
aF30358.68381568583
aF30361.270195978297
aF30362.655984336332
aF30365.78449829075
aF30368.170595528576
aF30378.222885202784
aF30380.16728239563
aF30387.625083870604
aF30388.790069138235
aF30389.04079617391
aF30398.375212644787
aF30399.73335600563
aF30400.280462892584
aF30411.54589742612
aF30415.921673380984
aF30437.220808265945
aF30437.270591445264
aF30439.92864131211
aF30440.93305209437
aF30454.96568647498
aF30455.664783012893
aF30459.000018980812
aF30461.274254922522
aF30481.299884166423
aF30483.788981166024
aF30491.338902484826
aF30494.49449247329
aF30502.24487232637
aF30521.947659273632
aF30524.546225303915
aF30543.82263786129
aF30551.278208428685
aF30552.54359801979
aF30555.18574237656
aF30556.311250594896
aF30570.65481266792
aF30587.251977069194
aF30590.63891700526
aF30591.249970691748
aF30598.216490548108
aF30601.81073099166
aF30602.84522421543
aF30607.488947437825
aF30613.023873392605
aF30613.855750272167
aF30614.074101274942
aF30615.04795580159
aF30615.190510555218
aF30629.353913241004
aF30639.55018710632
aF30643.051915610475
aF30644.699298147956
aF30656.36118187619
aF30658.956170037516
aF30670.787006805596
aF30679.87168349119
aF30683.624169234732
aF30686.582713347885
aF30687.693009541355
aF30687.71834822193
aF30687.942954411996
aF30694.892981994395
aF30699.09057040007
aF30699.611209549646
aF30714.46647051349
aF30716.980381491507
aF30717.04586733502
aF30718.550355289844
aF30719.206403583386
aF30720.641486651315
aF30723.476777739834
aF30725.776457688193
aF30727.725591026618
aF30728.091644365206
aF30731.63424557277
aF30745.788317634662
aF30747.47508940645
aF30748.05768486889
aF30760.055243679246
aF30773.28784391955
aF30773.777993816988
aF30775.045361750897
aF30777.858144186303
aF30779.024363115386
aF30782.9996324722
aF30806.52543708709
aF30806.83396476964
aF30807.867909416087
aF30814.365008341498
aF30834.17560983967
aF30849.69860539303
aF30852.755922211676
aF30854.144366288525
aF30854.5006322383
aF30858.94882125947
aF30859.09268488239
aF30866.41825455379
aF30871.917832063697
aF30879.812076468403
aF30879.96100854854
aF30881.07239306231
aF30884.53140842106
aF30887.745521540113
aF30894.432977099703
aF30899.829236926475
aF30902.303049061433
aF30904.52627451468
aF30907.209759719568
aF30910.053428041916
aF30925.38172515468
aF30925.871925761956
aF30928.06880365532
aF30929.144922797972
aF30932.678864715053
aF30935.18106600279
aF30941.63671837308
aF30945.548362288806
aF30951.88860343702
aF30952.790641449075
aF30956.796588514277
aF30959.59167099044
aF30960.87824994416
aF30962.02703356705
aF30965.02747556468
aF30966.502845756975
aF30967.838733168457
aF30986.650821502168
aF30988.856730304644
aF30993.64061186673
aF30994.339948347744
aF30997.90525973158
aF30999.28950123361
aF31004.023204780915
aF31005.96806683001
aF31020.047841921438
aF31020.47062822703
aF31021.58069884236
aF31022.839932795054
aF31023.78521293821
aF31033.8367735229
aF31038.531060961115
aF31038.56908528837
aF31039.55695260901
aF31040.40268190682
aF31046.384796920196
aF31051.684294603157
aF31051.75117703692
aF31058.463592108714
aF31064.07629814628
aF31068.40612415135
aF31068.76582500902
aF31074.89940256449
aF31079.27129941104
aF31079.96931503079
aF31080.30831528952
aF31082.841796512537
aF31088.94165904205
aF31094.210560024796
aF31095.123754967826
aF31098.94374391503
aF31099.399918435523
aF31109.76965025451
aF31111.598029099037
aF31116.14453939753
aF31120.22421120843
aF31131.2416134514
aF31132.467065291086
aF31132.92902153821
aF31133.912796050015
aF31154.99501426169
aF31167.951986524517
aF31175.183273306546
aF31187.97823679954
aF31195.750777376554
aF31202.358153905254
aF31202.9205633433
aF31204.601827574497
aF31205.72952332444
aF31207.17325787744
aF31207.758927002153
aF31210.567667144027
aF31212.624628805796
aF31230.219166417086
aF31236.873657134453
aF31245.984187789334
aF31246.751549745793
aF31248.295829546645
aF31249.202229399107
aF31249.82358903741
aF31254.759402616917
aF31259.987422895825
aF31263.68764814379
aF31271.390404130856
aF31288.42598501663
aF31309.096921727654
aF31309.355414217196
aF31311.969113197465
aF31313.23039129131
aF31316.017232496117
aF31319.82020237267
aF31322.664021316483
aF31323.974636675965
aF31324.012168660727
aF31343.552654929903
aF31358.087136326994
aF31378.06607495809
aF31387.315348934186
aF31389.033758397185
aF31391.04897681066
aF31393.045146420387
aF31404.715186521207
aF31413.6072943086
aF31416.939082619934
aF31421.812880270612
aF31424.517563592344
aF31425.69356538779
aF31425.739930372984
aF31425.893425326565
aF31429.95064508886
aF31438.185102825162
aF31440.54595431567
aF31446.730101788053
aF31446.920152723847
aF31448.100331760954
aF31452.759708330497
aF31467.296006610806
aF31473.144288230997
aF31482.993223491496
aF31484.46414395848
aF31486.154331804722
aF31488.377875374787
aF31490.53917492672
aF31490.65877433929
aF31492.227143850978
aF31492.856829429355
aF31511.970874846058
aF31528.033258889198
aF31529.793881568898
aF31546.005099277598
aF31551.27843322081
aF31557.185158863158
aF31568.474479090444
aF31574.083801098863
aF31574.860954325577
aF31575.110291321478
aF31581.737465257596
aF31588.80834765462
aF31599.261942283327
aF31599.722699935985
aF31606.7758069275
aF31626.43875462435
aF31638.441310362818
aF31648.009360703705
aF31649.688233086785
aF31660.133841991443
aF31667.918453090824
aF31679.787118044223
aF31681.774312556423
aF31695.751405433268
aF31701.40702113633
aF31708.0257128535
aF31710.2024798825
aF31715.01202726148
aF31719.700281060217
aF31723.026267277215
aF31732.369317001456
aF31744.592355037646
aF31747.07953565786
aF31755.627599226093
aF31764.52306037846
aF31766.119214059836
aF31772.879538923306
aF31784.47978077332
aF31785.987282899518
aF31789.692251805787
aF31790.05794408957
aF31794.00372149116
aF31802.6520150499
aF31803.576464337544
aF31805.361950124767
aF31812.823242704286
aF31823.95085240937
aF31828.09810872713
aF31829.363809266513
aF31837.706470855053
aF31840.69428096258
aF31859.22279146237
aF31861.35003933719
aF31868.776728507535
aF31869.079199642543
aF31874.797561222553
aF31876.256607926472
aF31876.855624085987
aF31877.6332858318
aF31882.2317376567
aF31885.079707592224
aF31885.46115132414
aF31894.810031932568
aF31899.606941181464
aF31906.3051709825
aF31918.087458836028
aF31925.157508241686
aF31936.12449571062
aF31936.232441230757
aF31941.03668413286
aF31950.31766725692
aF31958.04075083158
aF31960.96119974784
aF31962.81865105718
aF31966.14007914902
aF31972.008491058652
aF31972.965621846728
aF31973.921617463435
aF31985.23785033599
aF31989.844972085724
aF31992.42344246805
aF31993.67147249518
aF31994.330491825014
aF31997.26163041281
aF32026.974060373683
aF32030.651791281933
aF32033.79524015696
aF32036.027941983295
aF32042.018247142467
aF32048.409596104066
aF32048.501030655723
aF32049.314682360186
aF32058.152553982753
aF32077.747619932965
aF32081.62506602106
aF32086.80531583943
aF32092.533897061967
aF32092.633729479054
aF32096.674185097174
aF32098.900577995613
aF32104.033713562978
aF32114.166424886273
aF32118.36229477758
aF32125.98172717345
aF32127.243661302677
aF32127.63487473668
aF32127.932465544505
aF32129.79321685715
aF32131.967325483085
aF32132.985974898736
aF32136.153397083286
aF32138.627123321698
aF32143.09599483115
aF32144.287020784515
aF32149.480657943455
aF32152.059774061912
aF32152.83343327927
aF32154.016551613044
aF32162.626324433662
aF32182.607358440193
aF32186.244497132044
aF32188.398918323834
aF32191.99569673165
aF32199.04137431018
aF32199.834163218326
aF32225.280377656345
aF32238.07451219348
aF32240.153522147502
aF32251.29485458608
aF32253.13248064182
aF32254.751715940267
aF32261.41329636071
aF32270.721591530844
aF32281.876694122835
aF32286.459442144213
aF32292.982635665656
aF32293.796315601714
aF32303.641005961363
aF32306.598930933244
aF32307.05683226329
aF32307.81990151028
aF32310.2538483611
aF32319.74074616946
aF32330.48270690063
aF32335.20774239321
aF32346.28164388592
aF32350.84559623028
aF32355.187027522188
aF32359.43499328116
aF32359.918131927727
aF32362.534410131982
aF32364.782856103382
aF32367.128138220916
aF32372.015153067594
aF32376.86274393193
aF32380.9089905548
aF32382.250183868764
aF32392.26877937633
aF32400.825465218983
aF32401.51174265699
aF32405.44568238599
aF32413.249701194607
aF32429.936486434013
aF32433.418699764745
aF32446.213293860423
aF32454.06846098036
aF32458.147216236004
aF32461.822112561247
aF32463.270006406212
aF32464.04276283313
aF32464.389285357793
aF32466.272706915042
aF32467.101966721322
aF32468.477648038723
aF32472.297394479476
aF32472.699604374866
aF32474.863585002444
aF32481.435707859953
aF32489.703748885564
aF32489.84175552975
aF32493.007316698135
aF32496.216832830432
aF32496.688985583
aF32496.86676455247
aF32501.437362670476
aF32504.016715317044
aF32507.261576611523
aF32514.24344372797
aF32515.015310223436
aF32541.979543387864
aF32544.884488284144
aF32546.675981168817
aF32548.57576804372
aF32551.47785737584
aF32560.670966389913
aF32564.204046843646
aF32573.832263718967
aF32584.475781435132
aF32592.9849401513
aF32601.14118847801
aF32604.811413861902
aF32607.7548798405
aF32615.076419838693
aF32621.981514368297
aF32624.8051780378
aF32631.761649334676
aF32656.195552512672
aF32657.148011208083
aF32659.052191220777
aF32665.382006163145
aF32665.71217902336
aF32668.59170756814
aF32679.113298292326
aF32679.28429150469
aF32682.40646121863
aF32687.571694156024
aF32694.787974658455
aF32697.218958389793
aF32698.19229459189
aF32698.889909957168
aF32701.782945999927
aF32703.66023187802
aF32709.413672202176
aF32717.450658885267
aF32718.950267073225
aF32729.093610304546
aF32729.487017414438
aF32735.468778710187
aF32737.90090197051
aF32740.190104489095
aF32740.21133866153
aF32753.40285457122
aF32758.51912646015
aF32760.74363809111
aF32761.780580097344
aF32765.158170580075
aF32770.3071460907
aF32773.73770386062
aF32781.53835474583
aF32793.32434423883
aF32803.366838859736
aF32818.76017399376
aF32821.15933627306
aF32821.72252855572
aF32829.92800853045
aF32830.28014369625
aF32834.260893654595
aF32834.88178371862
aF32838.1638901242
aF32849.543854467214
aF32849.91098765691
aF32858.818626665256
aF32863.28544779298
aF32864.0985195689
aF32868.91585778665
aF32878.160021602685
aF32879.57439655968
aF32881.455290092985
aF32889.18884511591
aF32889.74246979038
aF32893.511175177584
aF32904.94495268875
aF32905.68845852346
aF32909.47041545447
aF32929.57404383749
aF32930.90781546203
aF32932.25154418705
aF32941.40721214039
aF32951.47182419987
aF32951.935846530374
aF32956.848014940086
aF32957.970156917705
aF32971.72065867553
aF32987.091792394436
aF32987.566021510924
aF32989.890045857355
aF32995.70575282529
aF32999.62555235504
aF33014.1775288827
aF33018.329330665125
aF33024.66883874196
aF33027.41917648239
aF33034.845156783034
aF33043.36462200367
aF33049.44468947812
aF33053.910081399874
aF33059.46219434163
aF33093.94496086361
aF33100.014106773735
aF33110.17297395691
aF33113.98382566133
aF33114.68604735364
aF33122.26548272703
aF33129.651215639955
aF33129.915738506745
aF33130.92395393875
aF33136.01095347903
aF33137.839121570345
aF33139.81531825568
aF33142.326608806434
aF33152.895942228446
aF33156.00502174565
aF33156.43670902061
aF33159.48635229112
aF33162.98769754364
aF33167.19303294882
aF33169.45949578258
aF33171.819345565265
aF33180.984881447206
aF33182.47256220186
aF33193.2968303409
aF33202.90008107585
aF33203.375559969994
aF33205.45345067021
aF33208.23868067111
aF33210.87999004745
aF33211.80637619366
aF33218.43591425395
aF33220.295235651756
aF33227.29180157
aF33229.34309368757
aF33237.66394846888
aF33243.26277749574
aF33255.384425858785
aF33264.11597389406
aF33264.12560859755
aF33272.16907276212
aF33273.56389122078
aF33276.24762858344
aF33276.55944776308
aF33276.954494959784
aF33282.677863588695
aF33284.985373761345
aF33286.93174613211
aF33287.045293901865
aF33288.97736085372
aF33289.84424348984
aF33291.49414718149
aF33294.77048565906
aF33298.15226062809
aF33300.57714079025
aF33306.165015887236
aF33306.56383799406
aF33313.420744401345
aF33318.01594053989
aF33326.568250467404
aF33334.952749260156
aF33346.1254497709
aF33347.354248289164
aF33356.79038285897
aF33357.25303342889
aF33359.915763156874
aF33360.38472912178
aF33376.85497666753
aF33381.63570169334
aF33383.35456118584
aF33392.792104074804
aF33394.76190951337
aF33412.93224755331
aF33415.012797479154
aF33415.238708112454
aF33425.14239174101
aF33427.12264420207
aF33430.18515469128
aF33443.382064909165
aF33462.9755264906
aF33464.88636805472
aF33466.406955755105
aF33467.31293182224
aF33472.97454289625
aF33483.77326342958
aF33487.858870499505
aF33495.46047780847
aF33495.612667825546
aF33500.01944049256
aF33500.61564616611
aF33505.31573731628
aF33509.99701248455
aF33525.96897568279
aF33532.81506709955
aF33539.467384873045
aF33551.41607235772
aF33553.24085377726
aF33553.24522259052
aF33555.15365109725
aF33555.437052412475
aF33573.24010861953
aF33574.03352130118
aF33600.407794266284
aF33606.769231924816
aF33610.27770957398
aF33621.5407123072
aF33631.50729528139
aF33633.35298191954
aF33636.06535800367
aF33649.60062082429
aF33661.99025971486
aF33662.69572149452
aF33664.1194781149
aF33667.426140860676
aF33668.55957244117
aF33670.10871222245
aF33671.146045609465
aF33671.81484353725
aF33673.28592266209
aF33679.110154528644
aF33679.231512058956
aF33679.377409148285
aF33685.33120840479
aF33686.812488593016
aF33694.936580620815
aF33697.574434532144
aF33699.66493622314
aF33708.90278181854
aF33715.568484392694
aF33717.84673740881
aF33721.49533080945
aF33728.63253319927
aF33735.05720252316
aF33736.62867374191
aF33741.60117318692
aF33742.946203411695
aF33751.7560462858
aF33752.12648981847
aF33766.725364084734
aF33767.358765956924
aF33775.98088257982
aF33783.194313881744
aF33788.47968564602
aF33803.5670725023
aF33807.64118539469
aF33816.72309134901
aF33842.284499157715
aF33844.39318349798
aF33850.90197892881
aF33858.627295467166
aF33860.47143574862
aF33866.65894303578
aF33867.29911775023
aF33871.52921679445
aF33874.54113131693
aF33875.75556538809
aF33884.265060098965
aF33885.517157282935
aF33899.743008133635
aF33920.797003068736
aF33928.223415758956
aF33930.02085046816
aF33937.99688330956
aF33938.536723341495
aF33945.5992150675
aF33948.31985234747
aF33954.634976125184
aF33956.62367439321
aF33957.63500010922
aF33960.62087566871
aF33966.45644611973
aF33979.7947682619
aF33991.82240314135
aF34008.98047251422
aF34009.23610355806
aF34016.2884948088
aF34030.87929592071
aF34036.12180200822
aF34042.495555715475
aF34044.99002331895
aF34053.997018687536
aF34056.63963296551
aF34057.45926101153
aF34057.84829197903
aF34062.33634042164
aF34067.12226174008
aF34067.901007724264
aF34071.0518036654
aF34074.337595018114
aF34076.44787957247
aF34077.63391508506
aF34078.67831039637
aF34080.43745408915
aF34082.54112382385
aF34088.971811166324
aF34092.44916936036
aF34094.609218805184
aF34095.96688003477
aF34097.264047088574
aF34099.369809330485
aF34101.48904012905
aF34104.59740873393
aF34110.78852130504
aF34122.04449763934
aF34124.57499642334
aF34126.70685908958
aF34127.13109740313
aF34135.35215815843
aF34143.59363621006
aF34155.05986187605
aF34158.10088394223
aF34164.630640268275
aF34170.72623682427
aF34174.34014946242
aF34176.18919997414
aF34176.46693677594
aF34182.542573413266
aF34193.74039230687
aF34193.77802255336
aF34205.38116386818
aF34215.74390722248
aF34216.92428112766
aF34219.893168285
aF34229.810989508784
aF34232.154170908434
aF34238.78921994783
aF34239.59732971221
aF34253.001379110356
aF34255.94182756753
aF34258.70884489625
aF34259.219728806565
aF34261.67292007046
aF34263.35320181807
aF34268.8301426622
aF34285.571574721114
aF34288.63165952005
aF34292.26025329301
aF34294.901268375994
aF34295.493752936294
aF34303.03827205408
aF34306.83985979842
aF34314.84916208801
aF34315.44374729484
aF34319.91819801819
aF34322.77892336628
aF34323.84578515085
aF34326.17986536337
aF34333.10767500598
aF34333.998988661166
aF34337.75901910649
aF34346.69018173858
aF34347.90221149483
aF34348.7352617947
aF34350.98776300357
aF34360.25957644834
aF34363.792527293204
aF34370.05394859982
aF34375.31072402171
aF34376.39142795428
aF34383.60544299581
aF34385.13736627886
aF34398.64248543319
aF34401.409501401184
aF34401.57827517135
aF34405.41164415878
aF34406.29643140848
aF34406.39388626717
aF34407.70557639021
aF34425.53368821489
aF34426.90738046219
aF34428.40402505359
aF34432.45840577605
aF34433.94724531825
aF34447.51784659699
aF34456.94845548224
aF34459.00123322417
aF34463.47402774549
aF34464.674622149534
aF34467.066797491134
aF34467.615877877346
aF34470.4011441018
aF34472.34007402099
aF34477.86742784696
aF34479.256720259866
aF34482.96399861918
aF34500.15396310263
aF34500.78851276868
aF34502.06436001135
aF34508.22664487423
aF34509.742511059325
aF34518.4379074582
aF34518.99227618961
aF34533.740840814324
aF34535.50403787032
aF34542.61561276333
aF34542.84907092303
aF34549.61955234194
aF34550.04762040825
aF34550.796883835865
aF34562.624354816704
aF34573.75663330045
aF34583.23130176688
aF34592.96905195626
aF34592.97435482111
aF34612.20325013274
aF34615.38018148392
aF34616.19280125034
aF34617.13423699501
aF34621.716464475154
aF34625.66487564703
aF34635.26442717256
aF34636.696888536135
aF34645.70670498264
aF34647.347688139605
aF34650.90059889028
aF34650.96198171184
aF34655.61820565586
aF34657.52536235378
aF34663.38948614697
aF34666.849728705725
aF34668.81614609194
aF34669.87929268686
aF34670.39831379731
aF34671.7488812292
aF34675.8384924514
aF34676.94635359713
aF34707.710837499275
aF34707.72999833665
aF34712.68231125332
aF34712.73423334965
aF34715.88138636536
aF34716.19409135921
aF34716.20087672073
aF34737.620604869786
aF34738.14535888016
aF34741.70731984229
aF34743.84122600078
aF34746.93650058632
aF34749.13003457916
aF34750.63990728986
aF34752.018430616954
aF34753.342551158596
aF34764.32045256963
aF34770.3582524288
aF34779.722218062954
aF34784.34341593266
aF34802.04130401744
aF34803.69143845731
aF34805.35290186218
aF34809.794192162495
aF34811.67625764379
aF34811.7806065576
aF34812.20008850856
aF34813.21650609185
aF34814.080357836894
aF34814.670649673106
aF34823.59488536553
aF34826.11099536548
aF34833.73079678761
aF34846.48604226989
aF34849.38723667661
aF34852.87627983884
aF34856.88651737591
aF34858.56810878534
aF34859.204886848886
aF34867.37259994321
aF34877.204676983754
aF34878.66891150735
aF34888.14942065423
aF34891.287866082355
aF34892.4834756663
aF34892.76589547185
aF34896.521295114435
aF34897.88683729459
aF34900.37097860366
aF34906.681185423055
aF34909.55390849982
aF34911.23164152528
aF34915.608750559455
aF34915.75736889404
aF34919.10007954495
aF34924.540981549355
aF34930.836978477324
aF34932.59704332887
aF34934.06643852058
aF34935.38479562732
aF34943.39026098892
aF34954.16745317113
aF34956.45116635889
aF34959.11476396679
aF34960.96634070559
aF34967.361233644544
aF34974.61897472846
aF35000.818674015376
aF35007.446973153914
aF35009.91991692311
aF35022.254348959286
aF35023.28626276316
aF35030.168053213674
aF35034.801294603436
aF35037.598195887054
aF35050.53314995423
aF35054.651894240786
aF35054.87046812938
aF35059.1503026357
aF35069.021721960686
aF35072.37586486667
aF35080.09202290346
aF35082.33341622108
aF35083.97910547254
aF35085.021351015705
aF35085.90049239524
aF35086.683444213355
aF35087.29594339538
aF35089.0545014477
aF35092.45612610777
aF35112.19279847895
aF35123.36798465978
aF35127.45958443744
aF35127.80554729767
aF35137.06495253303
aF35137.86940275299
aF35141.56089366273
aF35142.39603426795
aF35144.782092201625
aF35149.855219521756
aF35156.424383523554
aF35157.248779184076
aF35159.5495327568
aF35165.54164786106
aF35165.634548537884
aF35171.716869971984
aF35173.20422593126
aF35177.27441097505
aF35178.95412730812
aF35190.65828609776
aF35190.77956088947
aF35200.02908683324
aF35209.33222272354
aF35210.85457296136
aF35221.08080690927
aF35231.10108245735
aF35232.822470055646
aF35232.87921460665
aF35235.507389161954
aF35237.86690375161
aF35240.8328313552
aF35241.7014567623
aF35242.025349368305
aF35244.798871501414
aF35245.23790942338
aF35247.63276035981
aF35271.35070374598
aF35272.97571164412
aF35279.21128668281
aF35281.286789813574
aF35283.597227345526
aF35287.889633631166
aF35290.657234884726
aF35296.81534875205
aF35309.99069554913
aF35317.17001732448
aF35319.98278745778
aF35326.07235555958
aF35329.148221488984
aF35330.924148405575
aF35332.00565900749
aF35339.218982208724
aF35353.295832351665
aF35353.808294750124
aF35359.616366789945
aF35360.64890074794
aF35365.80683000524
aF35366.245311358325
aF35367.54771639178
aF35369.65039719924
aF35372.93489352876
aF35382.93337981987
aF35389.30700010813
aF35389.72023501363
aF35406.7833840336
aF35415.02346792762
aF35415.82520735337
aF35428.52441929623
aF35434.27680625416
aF35436.20876408168
aF35439.122313329965
aF35441.67047418398
aF35444.54855773678
aF35445.74457016781
aF35449.00449049414
aF35452.6192861441
aF35458.92541429228
aF35461.38331389137
aF35470.08146533022
aF35471.3897110513
aF35473.38863581298
aF35485.644773044754
aF35487.7906842038
aF35504.255656404304
aF35509.58054954248
aF35517.06331973858
aF35522.2875471305
aF35523.63063141476
aF35526.64595585799
aF35540.57588057854
aF35540.93511889278
aF35553.74297647532
aF35560.95888322639
aF35568.697009160176
aF35573.51921766085
aF35577.92228023586
aF35592.7512762378
aF35593.69494995023
aF35595.24324742924
aF35595.252580309425
aF35595.66419716104
aF35596.94957609462
aF35597.951958612575
aF35603.25409600364
aF35610.83623089618
aF35621.42032814828
aF35633.96968130487
aF35634.800273182205
aF35635.712441862175
aF35635.857825787345
aF35641.315867018675
aF35647.550830169836
aF35662.33651167995
aF35664.49308744049
aF35670.75629410241
aF35674.996775365435
aF35676.66213436236
aF35678.82277880787
aF35680.265417906965
aF35684.57735227406
aF35723.234853832706
aF35728.89444586607
aF35732.34395011273
aF35732.69846009147
aF35735.36245692623
aF35740.53547515913
aF35740.540169473
aF35748.53606044095
aF35756.83461416192
aF35766.79485023496
aF35768.10160374833
aF35769.364203338904
aF35777.2677591887
aF35787.33265574189
aF35791.365523512504
aF35797.90795625475
aF35798.43331048449
aF35802.7917288336
aF35805.71352594544
aF35806.13870914885
aF35812.761469209014
aF35830.5797289098
aF35832.11190760442
aF35832.3542335953
aF35834.530610276845
aF35836.19931782261
aF35842.676965496445
aF35852.060351374756
aF35854.3692896909
aF35862.836518777665
aF35872.56703663685
aF35873.171688291564
aF35877.64638631451
aF35898.83710522035
aF35904.80899599224
aF35910.84387064026
aF35918.623095873685
aF35919.78819451735
aF35922.31479479737
aF35923.046427659974
aF35925.5606561766
aF35928.52225049412
aF35942.74783296674
aF35945.75767686957
aF35951.299447088226
aF35955.74614561032
aF35959.44626458653
aF35963.51195346812
aF35967.94284907267
aF35969.36507270654
aF35976.71489228999
aF35978.98371588759
aF35981.71686436765
aF35981.89263545029
aF35982.945733622604
aF35982.961397703795
aF35985.44975731113
aF35992.09571678709
aF35995.790777123344
aF36000.057252802704
a.