(lp0
F43.47762394167488
aF117.09485538685239
aF209.13444793375615
aF237.13528151935495
aF265.7260673917654
aF326.01570656490605
aF401.50334995730833
aF753.2528884608329
aF783.3832909498645
aF841.0450265759641
aF879.8075395515107
aF913.4212198246828
aF1000.3591471801927
aF1000.6984164467691
aF1071.475019830323
aF1086.2322090995308
aF1212.4222405595451
aF1220.240937866326
aF1602.4890080617622
aF1701.3164475972746
aF1779.4135290653967
aF1887.1374916928935
aF1887.829263211471
aF1910.971052552677
aF2074.81564178553
aF2084.213064748989
aF2091.469718011545
aF2169.462317763529
aF2427.88358033558
aF2486.7222120584775
aF2491.8356704516827
aF2511.982665428583
aF2531.4145250420083
aF2536.7425039161644
aF2572.9383891670327
aF2605.5133188326167
aF2731.8936219109983
aF2767.74954493707
aF2889.7160198907995
aF2942.486681499837
aF2993.392531895643
aF3012.1230203961713
aF3187.372338313974
aF3232.0071113256413
aF3267.912012853891
aF3318.248573428924
aF3443.3550670552736
aF3598.4921187482355
aF3735.1460991592035
aF3882.803849884753
aF4227.474529763119
aF4236.979891178491
aF4466.145422127541
aF4590.124538277985
aF4618.820222580369
aF4881.652208831345
aF4902.299957073078
aF5081.36282291015
aF5409.069571447024
aF5509.233173595967
aF5535.664266611362
aF5591.393150866687
aF5719.881713079549
aF5744.272191402986
aF5757.644566890074
aF5760.671154180829
aF5922.076748360414
aF5922.771717001205
aF6056.892315215082
aF6099.563190910364
aF6363.1544961140835
aF6432.106232374231
aF6749.334963264602
aF6915.9385727731105
aF6932.923387407132
aF7087.08871218473
aF7215.020747773125
aF7393.766447602808
aF7395.478414713869
aF7409.313322285144
aF7473.6719942802065
aF7482.4395092076675
aF7623.134605272656
aF7630.692178050893
aF8063.139344227299
aF8163.1691620092215
aF8446.83207779301
aF8806.499798118062
aF9035.604132337576
aF9278.415568668139
aF9400.589545229019
aF9492.673662352045
aF9568.219684722386
aF9697.108152076551
aF9703.113985664299
aF9806.178489666756
aF9887.961957164878
aF9890.650546605728
aF9912.946734581294
aF10102.208718088508
aF10150.651358295065
aF10205.044519996518
aF10234.594423588042
aF10287.509842593017
aF10315.521102842751
aF10325.151512079367
aF10337.288359639442
aF10564.776340162776
aF10600.00948674504
aF10600.733645019749
aF10659.891236891968
aF10663.151652924089
aF10903.62864151764
aF10912.378320816635
aF10960.401882759832
aF10992.50710506277
aF11079.436840422582
aF11097.354927356653
aF11111.279586620916
aF11167.978722832744
aF11175.49722281953
aF11259.045637766561
aF11279.990731072166
aF11309.545363758194
aF11339.355549166516
aF11345.843873521246
aF11444.682926174124
aF11504.95873612778
aF11509.388605503307
aF11589.00598445409
aF11606.553166975895
aF11622.334162143643
aF11734.508808493116
aF11738.815650020022
aF11795.267232154609
aF11849.343099329386
aF11862.8327124631
aF11927.922937943818
aF12118.89628184904
aF12203.516481886969
aF12288.237530358034
aF12408.081948348477
aF12414.291970051298
aF12544.977312621959
aF12586.766103455091
aF12620.316747297711
aF13100.374933361809
aF13148.51726623792
aF13211.509286246424
aF13284.529350945408
aF13381.045547642825
aF13597.48207890287
aF13614.586255545953
aF13616.813948692254
aF13670.533828381363
aF13731.682018979034
aF13790.48747923447
aF14346.646218612166
aF14444.8416839207
aF14487.808420871199
aF14573.539697663537
aF14656.853541742568
aF14684.677658316354
aF14727.323258702716
aF14784.542400097702
aF14971.903253215869
aF15103.013220835674
aF15608.84159371234
aF15680.322040804955
aF15691.590080872476
aF15747.760271718904
aF15844.346210153119
aF15952.166348667135
aF16073.452576669788
aF16201.664114292576
aF16226.478736945206
aF16277.611949241345
aF16369.647531317567
aF16531.881002209746
aF16695.96037972724
aF16852.84810222132
aF16952.945147642946
aF16964.920127041125
aF17082.520580284676
aF17097.64803554989
aF17147.311054930848
aF17308.064015564203
aF17311.428080047233
aF17410.850087847568
aF17437.02905108724
aF17576.53296301917
aF17923.04134254567
aF18188.89210658739
aF18384.9561241909
aF18437.69866529708
aF18455.72533517544
aF18530.300816966013
aF18540.86041868058
aF18548.166893842346
aF18588.62533858934
aF18860.637479625213
aF18942.673148829752
aF19017.081834796947
aF19050.86856879546
aF19135.722361474316
aF19251.375244315546
aF19332.313000119935
aF19595.353434468645
aF19722.09208917447
aF19777.62715977311
aF19783.505640656032
aF19821.095022491023
aF20128.133434887222
aF20211.370690984677
aF20403.963769416976
aF20712.666486053567
aF20761.149719286477
aF20983.07138202237
aF20991.82536554251
aF21272.50245045203
aF21478.965489942195
aF21597.501770053386
aF21820.441151890525
aF21848.5508552923
aF21851.189804777216
aF21974.634195579398
aF21980.89832190564
aF21986.67455940949
aF22071.9214980723
aF22183.610748970677
aF22318.476179094065
aF22337.009475361578
aF22405.83682439987
aF22551.987558554174
aF22625.298978108774
aF22789.66188414674
aF22879.87417616969
aF22978.098764185845
aF23041.822358930436
aF23170.007825265657
aF23276.31355609449
aF23596.477682760105
aF23630.9955130814
aF23715.04916377479
aF23752.28281282561
aF23790.432524777927
aF23822.05692413854
aF23994.520984893956
aF24141.84119974112
aF24144.7538351537
aF24360.813550646344
aF24882.47796851672
aF25221.20278355331
aF25647.023100351373
aF25672.273788194307
aF26075.79241187694
aF26096.823143300375
aF26103.169416434634
aF26105.780177840352
aF26157.632518684113
aF26219.324007865413
aF26239.366449791767
aF26285.314880880796
aF26412.173109827527
aF26420.582363903177
aF26446.475548292347
aF26550.213160665757
aF26609.70547581731
aF26721.885649416123
aF26896.844671826366
aF27291.220786203292
aF27437.346185016817
aF27526.090565830586
aF27562.781501848003
aF27657.099621977093
aF27707.278078185675
aF27708.68411134348
aF27777.155806040784
aF27780.939392386823
aF27836.122535034214
aF27861.469065452122
aF27929.6202341772
aF28104.703828778645
aF28112.259869705285
aF28252.46384846989
aF28266.812267487105
aF28318.150570045327
aF28878.008104920496
aF28921.5498701519
aF29189.887458793048
aF29432.806956511704
aF29474.833327149554
aF29544.42976406156
aF29687.13716847089
aF29863.93664705486
aF30009.28239028832
aF30041.509804268353
aF30204.249427320054
aF30434.47716464048
aF30519.791491900178
aF30536.593201075568
aF30544.835186233417
aF30611.100602849485
aF30737.170473429913
aF30781.506598125787
aF30884.333473304418
aF30929.098364667352
aF30987.71632434614
aF31212.078156312855
aF31217.272298215008
aF31221.330815181263
aF31238.862102893545
aF31353.979761897263
aF31404.403309941532
aF31422.194172474152
aF31453.06527178357
aF31484.195159643234
aF31707.896279192097
aF31722.20221277119
aF31780.885424308326
aF31888.560277727323
aF31986.06492998551
aF32059.84382779297
aF32176.903321211037
aF32293.170482106394
aF32502.449494037246
aF32652.774129109555
aF32799.250812352424
aF32963.59918612483
aF33007.92377619641
aF33040.87276482491
aF33118.53070423032
aF33179.320194794665
aF33286.932298688946
aF33322.4804279408
aF33404.69015876766
aF33498.447726720144
aF33512.65211606282
aF33647.945235934276
aF33775.0263897826
aF33862.8800674925
aF33943.14988097932
aF34000.44700563306
aF34077.36355665777
aF34221.274429772675
aF34361.72139329924
aF34502.43710780088
aF34528.07732132427
aF34823.15342952868
aF34839.483307940296
aF34850.290377443634
aF34891.64436976396
aF35406.31965252691
aF35439.78663916487
aF35601.961061915354
aF35613.55135580702
aF35630.27981267204
aF35679.94374163248
aF35770.11896222222
aF35884.27169841249
aF36042.34881623031
a.